
c:\Users\600790\concurrency\concurrency-example\Leetcode\specialCountsTriplets\countSpecialTriplets.exe:     file format pei-x86-64


Disassembly of section .text:

0000000140001000 <__mingw_invalidParameterHandler>:
   140001000:	55                   	push   rbp
   140001001:	48 89 e5             	mov    rbp,rsp
   140001004:	48 89 4d 10          	mov    QWORD PTR [rbp+0x10],rcx
   140001008:	48 89 55 18          	mov    QWORD PTR [rbp+0x18],rdx
   14000100c:	4c 89 45 20          	mov    QWORD PTR [rbp+0x20],r8
   140001010:	44 89 4d 28          	mov    DWORD PTR [rbp+0x28],r9d
   140001014:	90                   	nop
   140001015:	5d                   	pop    rbp
   140001016:	c3                   	ret

0000000140001017 <pre_c_init>:
   140001017:	55                   	push   rbp
   140001018:	48 89 e5             	mov    rbp,rsp
   14000101b:	48 83 ec 20          	sub    rsp,0x20
   14000101f:	e8 54 03 00 00       	call   140001378 <check_managed_app>
   140001024:	89 05 f6 af 00 00    	mov    DWORD PTR [rip+0xaff6],eax        # 14000c020 <managedapp>
   14000102a:	48 8b 05 bf 74 00 00 	mov    rax,QWORD PTR [rip+0x74bf]        # 1400084f0 <.refptr.__mingw_app_type>
   140001031:	8b 00                	mov    eax,DWORD PTR [rax]
   140001033:	85 c0                	test   eax,eax
   140001035:	74 0c                	je     140001043 <pre_c_init+0x2c>
   140001037:	b9 02 00 00 00       	mov    ecx,0x2
   14000103c:	e8 5f 22 00 00       	call   1400032a0 <__set_app_type>
   140001041:	eb 0a                	jmp    14000104d <pre_c_init+0x36>
   140001043:	b9 01 00 00 00       	mov    ecx,0x1
   140001048:	e8 53 22 00 00       	call   1400032a0 <__set_app_type>
   14000104d:	e8 ce 21 00 00       	call   140003220 <__p__fmode>
   140001052:	48 8b 15 77 75 00 00 	mov    rdx,QWORD PTR [rip+0x7577]        # 1400085d0 <.refptr._fmode>
   140001059:	8b 12                	mov    edx,DWORD PTR [rdx]
   14000105b:	89 10                	mov    DWORD PTR [rax],edx
   14000105d:	e8 b6 21 00 00       	call   140003218 <__p__commode>
   140001062:	48 8b 15 47 75 00 00 	mov    rdx,QWORD PTR [rip+0x7547]        # 1400085b0 <.refptr._commode>
   140001069:	8b 12                	mov    edx,DWORD PTR [rdx]
   14000106b:	89 10                	mov    DWORD PTR [rax],edx
   14000106d:	e8 9e 08 00 00       	call   140001910 <_setargv>
   140001072:	48 8b 05 d7 73 00 00 	mov    rax,QWORD PTR [rip+0x73d7]        # 140008450 <.refptr._MINGW_INSTALL_DEBUG_MATHERR>
   140001079:	8b 00                	mov    eax,DWORD PTR [rax]
   14000107b:	83 f8 01             	cmp    eax,0x1
   14000107e:	75 0f                	jne    14000108f <pre_c_init+0x78>
   140001080:	48 8b 05 69 75 00 00 	mov    rax,QWORD PTR [rip+0x7569]        # 1400085f0 <.refptr._matherr>
   140001087:	48 89 c1             	mov    rcx,rax
   14000108a:	e8 db 13 00 00       	call   14000246a <__mingw_setusermatherr>
   14000108f:	b8 00 00 00 00       	mov    eax,0x0
   140001094:	48 83 c4 20          	add    rsp,0x20
   140001098:	5d                   	pop    rbp
   140001099:	c3                   	ret

000000014000109a <pre_cpp_init>:
   14000109a:	55                   	push   rbp
   14000109b:	48 89 e5             	mov    rbp,rsp
   14000109e:	48 83 ec 30          	sub    rsp,0x30
   1400010a2:	48 8b 05 57 75 00 00 	mov    rax,QWORD PTR [rip+0x7557]        # 140008600 <.refptr._newmode>
   1400010a9:	8b 00                	mov    eax,DWORD PTR [rax]
   1400010ab:	89 05 77 af 00 00    	mov    DWORD PTR [rip+0xaf77],eax        # 14000c028 <startinfo>
   1400010b1:	48 8b 05 08 75 00 00 	mov    rax,QWORD PTR [rip+0x7508]        # 1400085c0 <.refptr._dowildcard>
   1400010b8:	8b 10                	mov    edx,DWORD PTR [rax]
   1400010ba:	48 8d 05 67 af 00 00 	lea    rax,[rip+0xaf67]        # 14000c028 <startinfo>
   1400010c1:	48 89 44 24 20       	mov    QWORD PTR [rsp+0x20],rax
   1400010c6:	41 89 d1             	mov    r9d,edx
   1400010c9:	4c 8d 05 40 af 00 00 	lea    r8,[rip+0xaf40]        # 14000c010 <envp>
   1400010d0:	48 8d 05 31 af 00 00 	lea    rax,[rip+0xaf31]        # 14000c008 <argv>
   1400010d7:	48 89 c2             	mov    rdx,rax
   1400010da:	48 8d 05 23 af 00 00 	lea    rax,[rip+0xaf23]        # 14000c004 <argc>
   1400010e1:	48 89 c1             	mov    rcx,rax
   1400010e4:	e8 97 1e 00 00       	call   140002f80 <__getmainargs>
   1400010e9:	89 05 29 af 00 00    	mov    DWORD PTR [rip+0xaf29],eax        # 14000c018 <argret>
   1400010ef:	90                   	nop
   1400010f0:	48 83 c4 30          	add    rsp,0x30
   1400010f4:	5d                   	pop    rbp
   1400010f5:	c3                   	ret

00000001400010f6 <WinMainCRTStartup>:
   1400010f6:	55                   	push   rbp
   1400010f7:	48 89 e5             	mov    rbp,rsp
   1400010fa:	48 83 ec 30          	sub    rsp,0x30
   1400010fe:	c7 45 fc ff 00 00 00 	mov    DWORD PTR [rbp-0x4],0xff

0000000140001105 <.l_startw>:
   140001105:	48 8b 05 e4 73 00 00 	mov    rax,QWORD PTR [rip+0x73e4]        # 1400084f0 <.refptr.__mingw_app_type>
   14000110c:	c7 00 01 00 00 00    	mov    DWORD PTR [rax],0x1
   140001112:	e8 3d 00 00 00       	call   140001154 <__tmainCRTStartup>
   140001117:	89 45 fc             	mov    DWORD PTR [rbp-0x4],eax
   14000111a:	90                   	nop

000000014000111b <.l_endw>:
   14000111b:	90                   	nop
   14000111c:	8b 45 fc             	mov    eax,DWORD PTR [rbp-0x4]
   14000111f:	48 83 c4 30          	add    rsp,0x30
   140001123:	5d                   	pop    rbp
   140001124:	c3                   	ret

0000000140001125 <mainCRTStartup>:
   140001125:	55                   	push   rbp
   140001126:	48 89 e5             	mov    rbp,rsp
   140001129:	48 83 ec 30          	sub    rsp,0x30
   14000112d:	c7 45 fc ff 00 00 00 	mov    DWORD PTR [rbp-0x4],0xff

0000000140001134 <.l_start>:
   140001134:	48 8b 05 b5 73 00 00 	mov    rax,QWORD PTR [rip+0x73b5]        # 1400084f0 <.refptr.__mingw_app_type>
   14000113b:	c7 00 00 00 00 00    	mov    DWORD PTR [rax],0x0
   140001141:	e8 0e 00 00 00       	call   140001154 <__tmainCRTStartup>
   140001146:	89 45 fc             	mov    DWORD PTR [rbp-0x4],eax
   140001149:	90                   	nop

000000014000114a <.l_end>:
   14000114a:	90                   	nop
   14000114b:	8b 45 fc             	mov    eax,DWORD PTR [rbp-0x4]
   14000114e:	48 83 c4 30          	add    rsp,0x30
   140001152:	5d                   	pop    rbp
   140001153:	c3                   	ret

0000000140001154 <__tmainCRTStartup>:
   140001154:	55                   	push   rbp
   140001155:	48 89 e5             	mov    rbp,rsp
   140001158:	48 83 ec 70          	sub    rsp,0x70
   14000115c:	48 c7 45 f0 00 00 00 	mov    QWORD PTR [rbp-0x10],0x0
   140001163:	00 
   140001164:	c7 45 e4 30 00 00 00 	mov    DWORD PTR [rbp-0x1c],0x30
   14000116b:	8b 45 e4             	mov    eax,DWORD PTR [rbp-0x1c]
   14000116e:	65 48 8b 00          	mov    rax,QWORD PTR gs:[rax]
   140001172:	48 89 45 d8          	mov    QWORD PTR [rbp-0x28],rax
   140001176:	48 8b 45 d8          	mov    rax,QWORD PTR [rbp-0x28]
   14000117a:	48 8b 40 08          	mov    rax,QWORD PTR [rax+0x8]
   14000117e:	48 89 45 e8          	mov    QWORD PTR [rbp-0x18],rax
   140001182:	c7 45 fc 00 00 00 00 	mov    DWORD PTR [rbp-0x4],0x0
   140001189:	eb 21                	jmp    1400011ac <__tmainCRTStartup+0x58>
   14000118b:	48 8b 45 f0          	mov    rax,QWORD PTR [rbp-0x10]
   14000118f:	48 3b 45 e8          	cmp    rax,QWORD PTR [rbp-0x18]
   140001193:	75 09                	jne    14000119e <__tmainCRTStartup+0x4a>
   140001195:	c7 45 fc 01 00 00 00 	mov    DWORD PTR [rbp-0x4],0x1
   14000119c:	eb 45                	jmp    1400011e3 <__tmainCRTStartup+0x8f>
   14000119e:	b9 e8 03 00 00       	mov    ecx,0x3e8
   1400011a3:	48 8b 05 9e c2 00 00 	mov    rax,QWORD PTR [rip+0xc29e]        # 14000d448 <__imp_Sleep>
   1400011aa:	ff d0                	call   rax
   1400011ac:	48 8b 05 9d 73 00 00 	mov    rax,QWORD PTR [rip+0x739d]        # 140008550 <.refptr.__native_startup_lock>
   1400011b3:	48 89 45 d0          	mov    QWORD PTR [rbp-0x30],rax
   1400011b7:	48 8b 45 e8          	mov    rax,QWORD PTR [rbp-0x18]
   1400011bb:	48 89 45 c8          	mov    QWORD PTR [rbp-0x38],rax
   1400011bf:	48 c7 45 c0 00 00 00 	mov    QWORD PTR [rbp-0x40],0x0
   1400011c6:	00 
   1400011c7:	48 8b 4d c8          	mov    rcx,QWORD PTR [rbp-0x38]
   1400011cb:	48 8b 45 c0          	mov    rax,QWORD PTR [rbp-0x40]
   1400011cf:	48 8b 55 d0          	mov    rdx,QWORD PTR [rbp-0x30]
   1400011d3:	f0 48 0f b1 0a       	lock cmpxchg QWORD PTR [rdx],rcx
   1400011d8:	48 89 45 f0          	mov    QWORD PTR [rbp-0x10],rax
   1400011dc:	48 83 7d f0 00       	cmp    QWORD PTR [rbp-0x10],0x0
   1400011e1:	75 a8                	jne    14000118b <__tmainCRTStartup+0x37>
   1400011e3:	48 8b 05 76 73 00 00 	mov    rax,QWORD PTR [rip+0x7376]        # 140008560 <.refptr.__native_startup_state>
   1400011ea:	8b 00                	mov    eax,DWORD PTR [rax]
   1400011ec:	83 f8 01             	cmp    eax,0x1
   1400011ef:	75 0c                	jne    1400011fd <__tmainCRTStartup+0xa9>
   1400011f1:	b9 1f 00 00 00       	mov    ecx,0x1f
   1400011f6:	e8 e5 1e 00 00       	call   1400030e0 <_amsg_exit>
   1400011fb:	eb 3f                	jmp    14000123c <__tmainCRTStartup+0xe8>
   1400011fd:	48 8b 05 5c 73 00 00 	mov    rax,QWORD PTR [rip+0x735c]        # 140008560 <.refptr.__native_startup_state>
   140001204:	8b 00                	mov    eax,DWORD PTR [rax]
   140001206:	85 c0                	test   eax,eax
   140001208:	75 28                	jne    140001232 <__tmainCRTStartup+0xde>
   14000120a:	48 8b 05 4f 73 00 00 	mov    rax,QWORD PTR [rip+0x734f]        # 140008560 <.refptr.__native_startup_state>
   140001211:	c7 00 01 00 00 00    	mov    DWORD PTR [rax],0x1
   140001217:	48 8b 05 82 73 00 00 	mov    rax,QWORD PTR [rip+0x7382]        # 1400085a0 <.refptr.__xi_z>
   14000121e:	48 89 c2             	mov    rdx,rax
   140001221:	48 8b 05 68 73 00 00 	mov    rax,QWORD PTR [rip+0x7368]        # 140008590 <.refptr.__xi_a>
   140001228:	48 89 c1             	mov    rcx,rax
   14000122b:	e8 68 20 00 00       	call   140003298 <_initterm>
   140001230:	eb 0a                	jmp    14000123c <__tmainCRTStartup+0xe8>
   140001232:	c7 05 e8 ad 00 00 01 	mov    DWORD PTR [rip+0xade8],0x1        # 14000c024 <has_cctor>
   140001239:	00 00 00 
   14000123c:	48 8b 05 1d 73 00 00 	mov    rax,QWORD PTR [rip+0x731d]        # 140008560 <.refptr.__native_startup_state>
   140001243:	8b 00                	mov    eax,DWORD PTR [rax]
   140001245:	83 f8 01             	cmp    eax,0x1
   140001248:	75 26                	jne    140001270 <__tmainCRTStartup+0x11c>
   14000124a:	48 8b 05 2f 73 00 00 	mov    rax,QWORD PTR [rip+0x732f]        # 140008580 <.refptr.__xc_z>
   140001251:	48 89 c2             	mov    rdx,rax
   140001254:	48 8b 05 15 73 00 00 	mov    rax,QWORD PTR [rip+0x7315]        # 140008570 <.refptr.__xc_a>
   14000125b:	48 89 c1             	mov    rcx,rax
   14000125e:	e8 35 20 00 00       	call   140003298 <_initterm>
   140001263:	48 8b 05 f6 72 00 00 	mov    rax,QWORD PTR [rip+0x72f6]        # 140008560 <.refptr.__native_startup_state>
   14000126a:	c7 00 02 00 00 00    	mov    DWORD PTR [rax],0x2
   140001270:	83 7d fc 00          	cmp    DWORD PTR [rbp-0x4],0x0
   140001274:	75 1e                	jne    140001294 <__tmainCRTStartup+0x140>
   140001276:	48 8b 05 d3 72 00 00 	mov    rax,QWORD PTR [rip+0x72d3]        # 140008550 <.refptr.__native_startup_lock>
   14000127d:	48 89 45 b8          	mov    QWORD PTR [rbp-0x48],rax
   140001281:	48 c7 45 b0 00 00 00 	mov    QWORD PTR [rbp-0x50],0x0
   140001288:	00 
   140001289:	48 8b 55 b0          	mov    rdx,QWORD PTR [rbp-0x50]
   14000128d:	48 8b 45 b8          	mov    rax,QWORD PTR [rbp-0x48]
   140001291:	48 87 10             	xchg   QWORD PTR [rax],rdx
   140001294:	48 8b 05 15 72 00 00 	mov    rax,QWORD PTR [rip+0x7215]        # 1400084b0 <.refptr.__dyn_tls_init_callback>
   14000129b:	48 8b 00             	mov    rax,QWORD PTR [rax]
   14000129e:	48 85 c0             	test   rax,rax
   1400012a1:	74 1c                	je     1400012bf <__tmainCRTStartup+0x16b>
   1400012a3:	48 8b 05 06 72 00 00 	mov    rax,QWORD PTR [rip+0x7206]        # 1400084b0 <.refptr.__dyn_tls_init_callback>
   1400012aa:	48 8b 00             	mov    rax,QWORD PTR [rax]
   1400012ad:	41 b8 00 00 00 00    	mov    r8d,0x0
   1400012b3:	ba 02 00 00 00       	mov    edx,0x2
   1400012b8:	b9 00 00 00 00       	mov    ecx,0x0
   1400012bd:	ff d0                	call   rax
   1400012bf:	e8 94 10 00 00       	call   140002358 <_pei386_runtime_relocator>
   1400012c4:	48 8b 05 15 73 00 00 	mov    rax,QWORD PTR [rip+0x7315]        # 1400085e0 <.refptr._gnu_exception_handler>
   1400012cb:	48 89 c1             	mov    rcx,rax
   1400012ce:	48 8b 05 6b c1 00 00 	mov    rax,QWORD PTR [rip+0xc16b]        # 14000d440 <__imp_SetUnhandledExceptionFilter>
   1400012d5:	ff d0                	call   rax
   1400012d7:	48 8b 15 62 72 00 00 	mov    rdx,QWORD PTR [rip+0x7262]        # 140008540 <.refptr.__mingw_oldexcpt_handler>
   1400012de:	48 89 02             	mov    QWORD PTR [rdx],rax
   1400012e1:	48 8d 05 18 fd ff ff 	lea    rax,[rip+0xfffffffffffffd18]        # 140001000 <__mingw_invalidParameterHandler>
   1400012e8:	48 89 c1             	mov    rcx,rax
   1400012eb:	e8 b8 1f 00 00       	call   1400032a8 <_set_invalid_parameter_handler>
   1400012f0:	e8 5b 08 00 00       	call   140001b50 <_fpreset>
   1400012f5:	8b 05 09 ad 00 00    	mov    eax,DWORD PTR [rip+0xad09]        # 14000c004 <argc>
   1400012fb:	48 8d 15 06 ad 00 00 	lea    rdx,[rip+0xad06]        # 14000c008 <argv>
   140001302:	89 c1                	mov    ecx,eax
   140001304:	e8 73 01 00 00       	call   14000147c <duplicate_ppstrings>
   140001309:	e8 d9 05 00 00       	call   1400018e7 <__main>
   14000130e:	48 8b 05 bb 71 00 00 	mov    rax,QWORD PTR [rip+0x71bb]        # 1400084d0 <.refptr.__imp___initenv>
   140001315:	48 8b 00             	mov    rax,QWORD PTR [rax]
   140001318:	48 8b 15 f1 ac 00 00 	mov    rdx,QWORD PTR [rip+0xacf1]        # 14000c010 <envp>
   14000131f:	48 89 10             	mov    QWORD PTR [rax],rdx
   140001322:	48 8b 0d e7 ac 00 00 	mov    rcx,QWORD PTR [rip+0xace7]        # 14000c010 <envp>
   140001329:	48 8b 15 d8 ac 00 00 	mov    rdx,QWORD PTR [rip+0xacd8]        # 14000c008 <argv>
   140001330:	8b 05 ce ac 00 00    	mov    eax,DWORD PTR [rip+0xacce]        # 14000c004 <argc>
   140001336:	49 89 c8             	mov    r8,rcx
   140001339:	89 c1                	mov    ecx,eax
   14000133b:	e8 90 03 00 00       	call   1400016d0 <main>
   140001340:	89 05 d6 ac 00 00    	mov    DWORD PTR [rip+0xacd6],eax        # 14000c01c <mainret>
   140001346:	8b 05 d4 ac 00 00    	mov    eax,DWORD PTR [rip+0xacd4]        # 14000c020 <managedapp>
   14000134c:	85 c0                	test   eax,eax
   14000134e:	75 0d                	jne    14000135d <__tmainCRTStartup+0x209>
   140001350:	8b 05 c6 ac 00 00    	mov    eax,DWORD PTR [rip+0xacc6]        # 14000c01c <mainret>
   140001356:	89 c1                	mov    ecx,eax
   140001358:	e8 5b 1f 00 00       	call   1400032b8 <exit>
   14000135d:	8b 05 c1 ac 00 00    	mov    eax,DWORD PTR [rip+0xacc1]        # 14000c024 <has_cctor>
   140001363:	85 c0                	test   eax,eax
   140001365:	75 05                	jne    14000136c <__tmainCRTStartup+0x218>
   140001367:	e8 ec 1e 00 00       	call   140003258 <_cexit>
   14000136c:	8b 05 aa ac 00 00    	mov    eax,DWORD PTR [rip+0xacaa]        # 14000c01c <mainret>
   140001372:	48 83 c4 70          	add    rsp,0x70
   140001376:	5d                   	pop    rbp
   140001377:	c3                   	ret

0000000140001378 <check_managed_app>:
   140001378:	55                   	push   rbp
   140001379:	48 89 e5             	mov    rbp,rsp
   14000137c:	48 83 ec 20          	sub    rsp,0x20
   140001380:	48 8b 05 79 71 00 00 	mov    rax,QWORD PTR [rip+0x7179]        # 140008500 <.refptr.__mingw_initltsdrot_force>
   140001387:	c7 00 01 00 00 00    	mov    DWORD PTR [rax],0x1
   14000138d:	48 8b 05 7c 71 00 00 	mov    rax,QWORD PTR [rip+0x717c]        # 140008510 <.refptr.__mingw_initltsdyn_force>
   140001394:	c7 00 01 00 00 00    	mov    DWORD PTR [rax],0x1
   14000139a:	48 8b 05 7f 71 00 00 	mov    rax,QWORD PTR [rip+0x717f]        # 140008520 <.refptr.__mingw_initltssuo_force>
   1400013a1:	c7 00 01 00 00 00    	mov    DWORD PTR [rax],0x1
   1400013a7:	48 8b 05 d2 70 00 00 	mov    rax,QWORD PTR [rip+0x70d2]        # 140008480 <.refptr.__ImageBase>
   1400013ae:	48 89 45 f8          	mov    QWORD PTR [rbp-0x8],rax
   1400013b2:	48 8b 45 f8          	mov    rax,QWORD PTR [rbp-0x8]
   1400013b6:	0f b7 00             	movzx  eax,WORD PTR [rax]
   1400013b9:	66 3d 4d 5a          	cmp    ax,0x5a4d
   1400013bd:	74 0a                	je     1400013c9 <check_managed_app+0x51>
   1400013bf:	b8 00 00 00 00       	mov    eax,0x0
   1400013c4:	e9 ad 00 00 00       	jmp    140001476 <check_managed_app+0xfe>
   1400013c9:	48 8b 45 f8          	mov    rax,QWORD PTR [rbp-0x8]
   1400013cd:	8b 40 3c             	mov    eax,DWORD PTR [rax+0x3c]
   1400013d0:	48 63 d0             	movsxd rdx,eax
   1400013d3:	48 8b 45 f8          	mov    rax,QWORD PTR [rbp-0x8]
   1400013d7:	48 01 d0             	add    rax,rdx
   1400013da:	48 89 45 f0          	mov    QWORD PTR [rbp-0x10],rax
   1400013de:	48 8b 45 f0          	mov    rax,QWORD PTR [rbp-0x10]
   1400013e2:	8b 00                	mov    eax,DWORD PTR [rax]
   1400013e4:	3d 50 45 00 00       	cmp    eax,0x4550
   1400013e9:	74 0a                	je     1400013f5 <check_managed_app+0x7d>
   1400013eb:	b8 00 00 00 00       	mov    eax,0x0
   1400013f0:	e9 81 00 00 00       	jmp    140001476 <check_managed_app+0xfe>
   1400013f5:	48 8b 45 f0          	mov    rax,QWORD PTR [rbp-0x10]
   1400013f9:	48 83 c0 18          	add    rax,0x18
   1400013fd:	48 89 45 e8          	mov    QWORD PTR [rbp-0x18],rax
   140001401:	48 8b 45 e8          	mov    rax,QWORD PTR [rbp-0x18]
   140001405:	0f b7 00             	movzx  eax,WORD PTR [rax]
   140001408:	0f b7 c0             	movzx  eax,ax
   14000140b:	3d 0b 01 00 00       	cmp    eax,0x10b
   140001410:	74 09                	je     14000141b <check_managed_app+0xa3>
   140001412:	3d 0b 02 00 00       	cmp    eax,0x20b
   140001417:	74 29                	je     140001442 <check_managed_app+0xca>
   140001419:	eb 56                	jmp    140001471 <check_managed_app+0xf9>
   14000141b:	48 8b 45 e8          	mov    rax,QWORD PTR [rbp-0x18]
   14000141f:	8b 40 5c             	mov    eax,DWORD PTR [rax+0x5c]
   140001422:	83 f8 0e             	cmp    eax,0xe
   140001425:	77 07                	ja     14000142e <check_managed_app+0xb6>
   140001427:	b8 00 00 00 00       	mov    eax,0x0
   14000142c:	eb 48                	jmp    140001476 <check_managed_app+0xfe>
   14000142e:	48 8b 45 e8          	mov    rax,QWORD PTR [rbp-0x18]
   140001432:	8b 80 d0 00 00 00    	mov    eax,DWORD PTR [rax+0xd0]
   140001438:	85 c0                	test   eax,eax
   14000143a:	0f 95 c0             	setne  al
   14000143d:	0f b6 c0             	movzx  eax,al
   140001440:	eb 34                	jmp    140001476 <check_managed_app+0xfe>
   140001442:	48 8b 45 e8          	mov    rax,QWORD PTR [rbp-0x18]
   140001446:	48 89 45 e0          	mov    QWORD PTR [rbp-0x20],rax
   14000144a:	48 8b 45 e0          	mov    rax,QWORD PTR [rbp-0x20]
   14000144e:	8b 40 6c             	mov    eax,DWORD PTR [rax+0x6c]
   140001451:	83 f8 0e             	cmp    eax,0xe
   140001454:	77 07                	ja     14000145d <check_managed_app+0xe5>
   140001456:	b8 00 00 00 00       	mov    eax,0x0
   14000145b:	eb 19                	jmp    140001476 <check_managed_app+0xfe>
   14000145d:	48 8b 45 e0          	mov    rax,QWORD PTR [rbp-0x20]
   140001461:	8b 80 e0 00 00 00    	mov    eax,DWORD PTR [rax+0xe0]
   140001467:	85 c0                	test   eax,eax
   140001469:	0f 95 c0             	setne  al
   14000146c:	0f b6 c0             	movzx  eax,al
   14000146f:	eb 05                	jmp    140001476 <check_managed_app+0xfe>
   140001471:	b8 00 00 00 00       	mov    eax,0x0
   140001476:	48 83 c4 20          	add    rsp,0x20
   14000147a:	5d                   	pop    rbp
   14000147b:	c3                   	ret

000000014000147c <duplicate_ppstrings>:
   14000147c:	55                   	push   rbp
   14000147d:	53                   	push   rbx
   14000147e:	48 83 ec 48          	sub    rsp,0x48
   140001482:	48 8d 6c 24 40       	lea    rbp,[rsp+0x40]
   140001487:	89 4d 20             	mov    DWORD PTR [rbp+0x20],ecx
   14000148a:	48 89 55 28          	mov    QWORD PTR [rbp+0x28],rdx
   14000148e:	8b 45 20             	mov    eax,DWORD PTR [rbp+0x20]
   140001491:	83 c0 01             	add    eax,0x1
   140001494:	48 98                	cdqe
   140001496:	48 c1 e0 03          	shl    rax,0x3
   14000149a:	48 89 c1             	mov    rcx,rax
   14000149d:	e8 76 1e 00 00       	call   140003318 <malloc>
   1400014a2:	48 89 45 f0          	mov    QWORD PTR [rbp-0x10],rax
   1400014a6:	48 8b 45 28          	mov    rax,QWORD PTR [rbp+0x28]
   1400014aa:	48 8b 00             	mov    rax,QWORD PTR [rax]
   1400014ad:	48 89 45 e8          	mov    QWORD PTR [rbp-0x18],rax
   1400014b1:	c7 45 fc 00 00 00 00 	mov    DWORD PTR [rbp-0x4],0x0
   1400014b8:	e9 8c 00 00 00       	jmp    140001549 <duplicate_ppstrings+0xcd>
   1400014bd:	8b 45 fc             	mov    eax,DWORD PTR [rbp-0x4]
   1400014c0:	48 98                	cdqe
   1400014c2:	48 8d 14 c5 00 00 00 	lea    rdx,[rax*8+0x0]
   1400014c9:	00 
   1400014ca:	48 8b 45 e8          	mov    rax,QWORD PTR [rbp-0x18]
   1400014ce:	48 01 d0             	add    rax,rdx
   1400014d1:	48 8b 00             	mov    rax,QWORD PTR [rax]
   1400014d4:	48 89 c1             	mov    rcx,rax
   1400014d7:	e8 1c 1d 00 00       	call   1400031f8 <strlen>
   1400014dc:	48 83 c0 01          	add    rax,0x1
   1400014e0:	48 89 45 e0          	mov    QWORD PTR [rbp-0x20],rax
   1400014e4:	8b 45 fc             	mov    eax,DWORD PTR [rbp-0x4]
   1400014e7:	48 98                	cdqe
   1400014e9:	48 8d 14 c5 00 00 00 	lea    rdx,[rax*8+0x0]
   1400014f0:	00 
   1400014f1:	48 8b 45 f0          	mov    rax,QWORD PTR [rbp-0x10]
   1400014f5:	48 8d 1c 02          	lea    rbx,[rdx+rax*1]
   1400014f9:	48 8b 45 e0          	mov    rax,QWORD PTR [rbp-0x20]
   1400014fd:	48 89 c1             	mov    rcx,rax
   140001500:	e8 13 1e 00 00       	call   140003318 <malloc>
   140001505:	48 89 03             	mov    QWORD PTR [rbx],rax
   140001508:	8b 45 fc             	mov    eax,DWORD PTR [rbp-0x4]
   14000150b:	48 98                	cdqe
   14000150d:	48 8d 14 c5 00 00 00 	lea    rdx,[rax*8+0x0]
   140001514:	00 
   140001515:	48 8b 45 e8          	mov    rax,QWORD PTR [rbp-0x18]
   140001519:	48 01 d0             	add    rax,rdx
   14000151c:	48 8b 10             	mov    rdx,QWORD PTR [rax]
   14000151f:	8b 45 fc             	mov    eax,DWORD PTR [rbp-0x4]
   140001522:	48 98                	cdqe
   140001524:	48 8d 0c c5 00 00 00 	lea    rcx,[rax*8+0x0]
   14000152b:	00 
   14000152c:	48 8b 45 f0          	mov    rax,QWORD PTR [rbp-0x10]
   140001530:	48 01 c8             	add    rax,rcx
   140001533:	48 8b 00             	mov    rax,QWORD PTR [rax]
   140001536:	48 8b 4d e0          	mov    rcx,QWORD PTR [rbp-0x20]
   14000153a:	49 89 c8             	mov    r8,rcx
   14000153d:	48 89 c1             	mov    rcx,rax
   140001540:	e8 93 1d 00 00       	call   1400032d8 <memcpy>
   140001545:	83 45 fc 01          	add    DWORD PTR [rbp-0x4],0x1
   140001549:	8b 45 fc             	mov    eax,DWORD PTR [rbp-0x4]
   14000154c:	3b 45 20             	cmp    eax,DWORD PTR [rbp+0x20]
   14000154f:	0f 8c 68 ff ff ff    	jl     1400014bd <duplicate_ppstrings+0x41>
   140001555:	8b 45 fc             	mov    eax,DWORD PTR [rbp-0x4]
   140001558:	48 98                	cdqe
   14000155a:	48 8d 14 c5 00 00 00 	lea    rdx,[rax*8+0x0]
   140001561:	00 
   140001562:	48 8b 45 f0          	mov    rax,QWORD PTR [rbp-0x10]
   140001566:	48 01 d0             	add    rax,rdx
   140001569:	48 c7 00 00 00 00 00 	mov    QWORD PTR [rax],0x0
   140001570:	48 8b 45 28          	mov    rax,QWORD PTR [rbp+0x28]
   140001574:	48 8b 55 f0          	mov    rdx,QWORD PTR [rbp-0x10]
   140001578:	48 89 10             	mov    QWORD PTR [rax],rdx
   14000157b:	90                   	nop
   14000157c:	48 83 c4 48          	add    rsp,0x48
   140001580:	5b                   	pop    rbx
   140001581:	5d                   	pop    rbp
   140001582:	c3                   	ret

0000000140001583 <atexit>:
   140001583:	55                   	push   rbp
   140001584:	48 89 e5             	mov    rbp,rsp
   140001587:	48 83 ec 20          	sub    rsp,0x20
   14000158b:	48 89 4d 10          	mov    QWORD PTR [rbp+0x10],rcx
   14000158f:	48 8b 45 10          	mov    rax,QWORD PTR [rbp+0x10]
   140001593:	48 89 c1             	mov    rcx,rax
   140001596:	e8 e5 1a 00 00       	call   140003080 <_onexit>
   14000159b:	48 85 c0             	test   rax,rax
   14000159e:	74 07                	je     1400015a7 <atexit+0x24>
   1400015a0:	b8 00 00 00 00       	mov    eax,0x0
   1400015a5:	eb 05                	jmp    1400015ac <atexit+0x29>
   1400015a7:	b8 ff ff ff ff       	mov    eax,0xffffffff
   1400015ac:	48 83 c4 20          	add    rsp,0x20
   1400015b0:	5d                   	pop    rbp
   1400015b1:	c3                   	ret
   1400015b2:	90                   	nop
   1400015b3:	90                   	nop
   1400015b4:	90                   	nop
   1400015b5:	90                   	nop
   1400015b6:	90                   	nop
   1400015b7:	90                   	nop
   1400015b8:	90                   	nop
   1400015b9:	90                   	nop
   1400015ba:	90                   	nop
   1400015bb:	90                   	nop
   1400015bc:	90                   	nop
   1400015bd:	90                   	nop
   1400015be:	90                   	nop
   1400015bf:	90                   	nop

00000001400015c0 <.weak.__register_frame_info.hmod_libgcc>:
   1400015c0:	c3                   	ret
   1400015c1:	66 66 2e 0f 1f 84 00 	data16 cs nop WORD PTR [rax+rax*1+0x0]
   1400015c8:	00 00 00 00 
   1400015cc:	0f 1f 40 00          	nop    DWORD PTR [rax+0x0]

00000001400015d0 <.weak.__deregister_frame_info.hmod_libgcc>:
   1400015d0:	31 c0                	xor    eax,eax
   1400015d2:	c3                   	ret
   1400015d3:	66 66 2e 0f 1f 84 00 	data16 cs nop WORD PTR [rax+rax*1+0x0]
   1400015da:	00 00 00 00 
   1400015de:	66 90                	xchg   ax,ax

00000001400015e0 <__gcc_register_frame>:
   1400015e0:	55                   	push   rbp
   1400015e1:	57                   	push   rdi
   1400015e2:	56                   	push   rsi
   1400015e3:	53                   	push   rbx
   1400015e4:	48 83 ec 28          	sub    rsp,0x28
   1400015e8:	48 8d 6c 24 20       	lea    rbp,[rsp+0x20]
   1400015ed:	48 8d 35 0c 6a 00 00 	lea    rsi,[rip+0x6a0c]        # 140008000 <.rdata>
   1400015f4:	48 89 f1             	mov    rcx,rsi
   1400015f7:	ff 15 1b be 00 00    	call   QWORD PTR [rip+0xbe1b]        # 14000d418 <__imp_GetModuleHandleA>
   1400015fd:	48 89 c3             	mov    rbx,rax
   140001600:	48 85 c0             	test   rax,rax
   140001603:	74 6b                	je     140001670 <__gcc_register_frame+0x90>
   140001605:	48 89 f1             	mov    rcx,rsi
   140001608:	ff 15 2a be 00 00    	call   QWORD PTR [rip+0xbe2a]        # 14000d438 <__imp_LoadLibraryA>
   14000160e:	48 8b 3d 0b be 00 00 	mov    rdi,QWORD PTR [rip+0xbe0b]        # 14000d420 <__imp_GetProcAddress>
   140001615:	48 8d 15 f7 69 00 00 	lea    rdx,[rip+0x69f7]        # 140008013 <.rdata+0x13>
   14000161c:	48 89 d9             	mov    rcx,rbx
   14000161f:	48 89 05 1a aa 00 00 	mov    QWORD PTR [rip+0xaa1a],rax        # 14000c040 <hmod_libgcc>
   140001626:	ff d7                	call   rdi
   140001628:	48 8d 15 fa 69 00 00 	lea    rdx,[rip+0x69fa]        # 140008029 <.rdata+0x29>
   14000162f:	48 89 d9             	mov    rcx,rbx
   140001632:	48 89 c6             	mov    rsi,rax
   140001635:	ff d7                	call   rdi
   140001637:	48 89 05 c2 59 00 00 	mov    QWORD PTR [rip+0x59c2],rax        # 140007000 <__data_start__>
   14000163e:	48 85 f6             	test   rsi,rsi
   140001641:	74 10                	je     140001653 <__gcc_register_frame+0x73>
   140001643:	48 8d 15 16 aa 00 00 	lea    rdx,[rip+0xaa16]        # 14000c060 <obj>
   14000164a:	48 8d 0d af 79 00 00 	lea    rcx,[rip+0x79af]        # 140009000 <__EH_FRAME_BEGIN__>
   140001651:	ff d6                	call   rsi
   140001653:	48 8d 0d 36 00 00 00 	lea    rcx,[rip+0x36]        # 140001690 <__gcc_deregister_frame>
   14000165a:	48 83 c4 28          	add    rsp,0x28
   14000165e:	5b                   	pop    rbx
   14000165f:	5e                   	pop    rsi
   140001660:	5f                   	pop    rdi
   140001661:	5d                   	pop    rbp
   140001662:	e9 1c ff ff ff       	jmp    140001583 <atexit>
   140001667:	66 0f 1f 84 00 00 00 	nop    WORD PTR [rax+rax*1+0x0]
   14000166e:	00 00 
   140001670:	48 8d 05 59 ff ff ff 	lea    rax,[rip+0xffffffffffffff59]        # 1400015d0 <.weak.__deregister_frame_info.hmod_libgcc>
   140001677:	48 8d 35 42 ff ff ff 	lea    rsi,[rip+0xffffffffffffff42]        # 1400015c0 <.weak.__register_frame_info.hmod_libgcc>
   14000167e:	48 89 05 7b 59 00 00 	mov    QWORD PTR [rip+0x597b],rax        # 140007000 <__data_start__>
   140001685:	eb bc                	jmp    140001643 <__gcc_register_frame+0x63>
   140001687:	66 0f 1f 84 00 00 00 	nop    WORD PTR [rax+rax*1+0x0]
   14000168e:	00 00 

0000000140001690 <__gcc_deregister_frame>:
   140001690:	55                   	push   rbp
   140001691:	48 89 e5             	mov    rbp,rsp
   140001694:	48 83 ec 20          	sub    rsp,0x20
   140001698:	48 8b 05 61 59 00 00 	mov    rax,QWORD PTR [rip+0x5961]        # 140007000 <__data_start__>
   14000169f:	48 85 c0             	test   rax,rax
   1400016a2:	74 09                	je     1400016ad <__gcc_deregister_frame+0x1d>
   1400016a4:	48 8d 0d 55 79 00 00 	lea    rcx,[rip+0x7955]        # 140009000 <__EH_FRAME_BEGIN__>
   1400016ab:	ff d0                	call   rax
   1400016ad:	48 8b 0d 8c a9 00 00 	mov    rcx,QWORD PTR [rip+0xa98c]        # 14000c040 <hmod_libgcc>
   1400016b4:	48 85 c9             	test   rcx,rcx
   1400016b7:	74 0f                	je     1400016c8 <__gcc_deregister_frame+0x38>
   1400016b9:	48 83 c4 20          	add    rsp,0x20
   1400016bd:	5d                   	pop    rbp
   1400016be:	48 ff 25 43 bd 00 00 	rex.W jmp QWORD PTR [rip+0xbd43]        # 14000d408 <__imp_FreeLibrary>
   1400016c5:	0f 1f 00             	nop    DWORD PTR [rax]
   1400016c8:	48 83 c4 20          	add    rsp,0x20
   1400016cc:	5d                   	pop    rbp
   1400016cd:	c3                   	ret
   1400016ce:	90                   	nop
   1400016cf:	90                   	nop

00000001400016d0 <main>:
   1400016d0:	55                   	push   rbp
   1400016d1:	57                   	push   rdi
   1400016d2:	56                   	push   rsi
   1400016d3:	53                   	push   rbx
   1400016d4:	48 81 ec 88 00 00 00 	sub    rsp,0x88
   1400016db:	48 8d ac 24 80 00 00 	lea    rbp,[rsp+0x80]
   1400016e2:	00 
   1400016e3:	e8 ff 01 00 00       	call   1400018e7 <__main>
   1400016e8:	48 8d 35 d1 69 00 00 	lea    rsi,[rip+0x69d1]        # 1400080c0 <C.0.0>
   1400016ef:	bf 0f 00 00 00       	mov    edi,0xf
   1400016f4:	48 8d 45 df          	lea    rax,[rbp-0x21]
   1400016f8:	48 89 45 f8          	mov    QWORD PTR [rbp-0x8],rax
   1400016fc:	90                   	nop
   1400016fd:	90                   	nop
   1400016fe:	48 89 75 a0          	mov    QWORD PTR [rbp-0x60],rsi
   140001702:	48 89 7d a8          	mov    QWORD PTR [rbp-0x58],rdi
   140001706:	48 8d 4d df          	lea    rcx,[rbp-0x21]
   14000170a:	48 8d 55 a0          	lea    rdx,[rbp-0x60]
   14000170e:	48 8d 45 c0          	lea    rax,[rbp-0x40]
   140001712:	49 89 c8             	mov    r8,rcx
   140001715:	48 89 c1             	mov    rcx,rax
   140001718:	e8 33 3a 00 00       	call   140005150 <_ZNSt6vectorIiSaIiEEC1ESt16initializer_listIiERKS0_>
   14000171d:	90                   	nop
   14000171e:	48 8d 05 6c 69 00 00 	lea    rax,[rip+0x696c]        # 140008091 <.rdata+0x31>
   140001725:	48 89 c2             	mov    rdx,rax
   140001728:	48 8b 05 31 6d 00 00 	mov    rax,QWORD PTR [rip+0x6d31]        # 140008460 <__fu0__ZSt4cout>
   14000172f:	48 89 c1             	mov    rcx,rax
   140001732:	e8 c1 00 00 00       	call   1400017f8 <_ZStlsISt11char_traitsIcEERSt13basic_ostreamIcT_ES5_PKc>
   140001737:	48 89 c3             	mov    rbx,rax
   14000173a:	48 8d 55 c0          	lea    rdx,[rbp-0x40]
   14000173e:	48 8d 45 e0          	lea    rax,[rbp-0x20]
   140001742:	48 89 c1             	mov    rcx,rax
   140001745:	e8 16 39 00 00       	call   140005060 <_ZNSt6vectorIiSaIiEEC1ERKS1_>
   14000174a:	48 8d 55 e0          	lea    rdx,[rbp-0x20]
   14000174e:	48 8d 45 bf          	lea    rax,[rbp-0x41]
   140001752:	48 89 c1             	mov    rcx,rax
   140001755:	e8 46 1c 00 00       	call   1400033a0 <_ZN8Solution15specialTripletsESt6vectorIiSaIiEE>
   14000175a:	89 c2                	mov    edx,eax
   14000175c:	48 89 d9             	mov    rcx,rbx
   14000175f:	e8 b4 00 00 00       	call   140001818 <_ZNSolsEi>
   140001764:	48 8d 45 e0          	lea    rax,[rbp-0x20]
   140001768:	48 89 c1             	mov    rcx,rax
   14000176b:	e8 70 3a 00 00       	call   1400051e0 <_ZNSt6vectorIiSaIiEED1Ev>
   140001770:	bb 00 00 00 00       	mov    ebx,0x0
   140001775:	48 8d 45 c0          	lea    rax,[rbp-0x40]
   140001779:	48 89 c1             	mov    rcx,rax
   14000177c:	e8 5f 3a 00 00       	call   1400051e0 <_ZNSt6vectorIiSaIiEED1Ev>
   140001781:	89 d8                	mov    eax,ebx
   140001783:	eb 2b                	jmp    1400017b0 <main+0xe0>
   140001785:	48 89 c3             	mov    rbx,rax
   140001788:	48 8d 45 e0          	lea    rax,[rbp-0x20]
   14000178c:	48 89 c1             	mov    rcx,rax
   14000178f:	e8 4c 3a 00 00       	call   1400051e0 <_ZNSt6vectorIiSaIiEED1Ev>
   140001794:	eb 03                	jmp    140001799 <main+0xc9>
   140001796:	48 89 c3             	mov    rbx,rax
   140001799:	48 8d 45 c0          	lea    rax,[rbp-0x40]
   14000179d:	48 89 c1             	mov    rcx,rax
   1400017a0:	e8 3b 3a 00 00       	call   1400051e0 <_ZNSt6vectorIiSaIiEED1Ev>
   1400017a5:	48 89 d8             	mov    rax,rbx
   1400017a8:	48 89 c1             	mov    rcx,rax
   1400017ab:	e8 d0 16 00 00       	call   140002e80 <_Unwind_Resume>
   1400017b0:	48 81 c4 88 00 00 00 	add    rsp,0x88
   1400017b7:	5b                   	pop    rbx
   1400017b8:	5e                   	pop    rsi
   1400017b9:	5f                   	pop    rdi
   1400017ba:	5d                   	pop    rbp
   1400017bb:	c3                   	ret
   1400017bc:	90                   	nop
   1400017bd:	90                   	nop
   1400017be:	90                   	nop
   1400017bf:	90                   	nop

00000001400017c0 <__gxx_personality_seh0>:
   1400017c0:	ff 25 22 bc 00 00    	jmp    QWORD PTR [rip+0xbc22]        # 14000d3e8 <__imp___gxx_personality_seh0>
   1400017c6:	90                   	nop
   1400017c7:	90                   	nop

00000001400017c8 <__cxa_rethrow>:
   1400017c8:	ff 25 12 bc 00 00    	jmp    QWORD PTR [rip+0xbc12]        # 14000d3e0 <__imp___cxa_rethrow>
   1400017ce:	90                   	nop
   1400017cf:	90                   	nop

00000001400017d0 <__cxa_end_catch>:
   1400017d0:	ff 25 02 bc 00 00    	jmp    QWORD PTR [rip+0xbc02]        # 14000d3d8 <__imp___cxa_end_catch>
   1400017d6:	90                   	nop
   1400017d7:	90                   	nop

00000001400017d8 <__cxa_begin_catch>:
   1400017d8:	ff 25 f2 bb 00 00    	jmp    QWORD PTR [rip+0xbbf2]        # 14000d3d0 <__imp___cxa_begin_catch>
   1400017de:	90                   	nop
   1400017df:	90                   	nop

00000001400017e0 <_Znwy>:
   1400017e0:	ff 25 e2 bb 00 00    	jmp    QWORD PTR [rip+0xbbe2]        # 14000d3c8 <__imp__Znwy>
   1400017e6:	90                   	nop
   1400017e7:	90                   	nop

00000001400017e8 <_ZdlPvy>:
   1400017e8:	ff 25 d2 bb 00 00    	jmp    QWORD PTR [rip+0xbbd2]        # 14000d3c0 <__imp__ZdlPvy>
   1400017ee:	90                   	nop
   1400017ef:	90                   	nop

00000001400017f0 <_ZdlPv>:
   1400017f0:	ff 25 c2 bb 00 00    	jmp    QWORD PTR [rip+0xbbc2]        # 14000d3b8 <__imp__ZdlPv>
   1400017f6:	90                   	nop
   1400017f7:	90                   	nop

00000001400017f8 <_ZStlsISt11char_traitsIcEERSt13basic_ostreamIcT_ES5_PKc>:
   1400017f8:	ff 25 b2 bb 00 00    	jmp    QWORD PTR [rip+0xbbb2]        # 14000d3b0 <__imp__ZStlsISt11char_traitsIcEERSt13basic_ostreamIcT_ES5_PKc>
   1400017fe:	90                   	nop
   1400017ff:	90                   	nop

0000000140001800 <_ZSt28__throw_bad_array_new_lengthv>:
   140001800:	ff 25 9a bb 00 00    	jmp    QWORD PTR [rip+0xbb9a]        # 14000d3a0 <__imp__ZSt28__throw_bad_array_new_lengthv>
   140001806:	90                   	nop
   140001807:	90                   	nop

0000000140001808 <_ZSt20__throw_length_errorPKc>:
   140001808:	ff 25 8a bb 00 00    	jmp    QWORD PTR [rip+0xbb8a]        # 14000d398 <__imp__ZSt20__throw_length_errorPKc>
   14000180e:	90                   	nop
   14000180f:	90                   	nop

0000000140001810 <_ZSt17__throw_bad_allocv>:
   140001810:	ff 25 7a bb 00 00    	jmp    QWORD PTR [rip+0xbb7a]        # 14000d390 <__imp__ZSt17__throw_bad_allocv>
   140001816:	90                   	nop
   140001817:	90                   	nop

0000000140001818 <_ZNSolsEi>:
   140001818:	ff 25 6a bb 00 00    	jmp    QWORD PTR [rip+0xbb6a]        # 14000d388 <__imp__ZNSolsEi>
   14000181e:	90                   	nop
   14000181f:	90                   	nop

0000000140001820 <_ZNKSt8__detail20_Prime_rehash_policy14_M_need_rehashEyyy>:
   140001820:	ff 25 5a bb 00 00    	jmp    QWORD PTR [rip+0xbb5a]        # 14000d380 <__imp__ZNKSt8__detail20_Prime_rehash_policy14_M_need_rehashEyyy>
   140001826:	90                   	nop
   140001827:	90                   	nop
   140001828:	0f 1f 84 00 00 00 00 	nop    DWORD PTR [rax+rax*1+0x0]
   14000182f:	00 

0000000140001830 <__do_global_dtors>:
   140001830:	55                   	push   rbp
   140001831:	48 89 e5             	mov    rbp,rsp
   140001834:	48 83 ec 20          	sub    rsp,0x20
   140001838:	eb 1e                	jmp    140001858 <__do_global_dtors+0x28>
   14000183a:	48 8b 05 cf 57 00 00 	mov    rax,QWORD PTR [rip+0x57cf]        # 140007010 <p.0>
   140001841:	48 8b 00             	mov    rax,QWORD PTR [rax]
   140001844:	ff d0                	call   rax
   140001846:	48 8b 05 c3 57 00 00 	mov    rax,QWORD PTR [rip+0x57c3]        # 140007010 <p.0>
   14000184d:	48 83 c0 08          	add    rax,0x8
   140001851:	48 89 05 b8 57 00 00 	mov    QWORD PTR [rip+0x57b8],rax        # 140007010 <p.0>
   140001858:	48 8b 05 b1 57 00 00 	mov    rax,QWORD PTR [rip+0x57b1]        # 140007010 <p.0>
   14000185f:	48 8b 00             	mov    rax,QWORD PTR [rax]
   140001862:	48 85 c0             	test   rax,rax
   140001865:	75 d3                	jne    14000183a <__do_global_dtors+0xa>
   140001867:	90                   	nop
   140001868:	90                   	nop
   140001869:	48 83 c4 20          	add    rsp,0x20
   14000186d:	5d                   	pop    rbp
   14000186e:	c3                   	ret

000000014000186f <__do_global_ctors>:
   14000186f:	55                   	push   rbp
   140001870:	48 89 e5             	mov    rbp,rsp
   140001873:	48 83 ec 30          	sub    rsp,0x30
   140001877:	48 8b 05 f2 6b 00 00 	mov    rax,QWORD PTR [rip+0x6bf2]        # 140008470 <.refptr.__CTOR_LIST__>
   14000187e:	48 8b 00             	mov    rax,QWORD PTR [rax]
   140001881:	89 45 fc             	mov    DWORD PTR [rbp-0x4],eax
   140001884:	83 7d fc ff          	cmp    DWORD PTR [rbp-0x4],0xffffffff
   140001888:	75 25                	jne    1400018af <__do_global_ctors+0x40>
   14000188a:	c7 45 fc 00 00 00 00 	mov    DWORD PTR [rbp-0x4],0x0
   140001891:	eb 04                	jmp    140001897 <__do_global_ctors+0x28>
   140001893:	83 45 fc 01          	add    DWORD PTR [rbp-0x4],0x1
   140001897:	8b 45 fc             	mov    eax,DWORD PTR [rbp-0x4]
   14000189a:	8d 50 01             	lea    edx,[rax+0x1]
   14000189d:	48 8b 05 cc 6b 00 00 	mov    rax,QWORD PTR [rip+0x6bcc]        # 140008470 <.refptr.__CTOR_LIST__>
   1400018a4:	89 d2                	mov    edx,edx
   1400018a6:	48 8b 04 d0          	mov    rax,QWORD PTR [rax+rdx*8]
   1400018aa:	48 85 c0             	test   rax,rax
   1400018ad:	75 e4                	jne    140001893 <__do_global_ctors+0x24>
   1400018af:	8b 45 fc             	mov    eax,DWORD PTR [rbp-0x4]
   1400018b2:	89 45 f8             	mov    DWORD PTR [rbp-0x8],eax
   1400018b5:	eb 14                	jmp    1400018cb <__do_global_ctors+0x5c>
   1400018b7:	48 8b 05 b2 6b 00 00 	mov    rax,QWORD PTR [rip+0x6bb2]        # 140008470 <.refptr.__CTOR_LIST__>
   1400018be:	8b 55 f8             	mov    edx,DWORD PTR [rbp-0x8]
   1400018c1:	48 8b 04 d0          	mov    rax,QWORD PTR [rax+rdx*8]
   1400018c5:	ff d0                	call   rax
   1400018c7:	83 6d f8 01          	sub    DWORD PTR [rbp-0x8],0x1
   1400018cb:	83 7d f8 00          	cmp    DWORD PTR [rbp-0x8],0x0
   1400018cf:	75 e6                	jne    1400018b7 <__do_global_ctors+0x48>
   1400018d1:	48 8d 05 58 ff ff ff 	lea    rax,[rip+0xffffffffffffff58]        # 140001830 <__do_global_dtors>
   1400018d8:	48 89 c1             	mov    rcx,rax
   1400018db:	e8 a3 fc ff ff       	call   140001583 <atexit>
   1400018e0:	90                   	nop
   1400018e1:	48 83 c4 30          	add    rsp,0x30
   1400018e5:	5d                   	pop    rbp
   1400018e6:	c3                   	ret

00000001400018e7 <__main>:
   1400018e7:	55                   	push   rbp
   1400018e8:	48 89 e5             	mov    rbp,rsp
   1400018eb:	48 83 ec 20          	sub    rsp,0x20
   1400018ef:	8b 05 ab a7 00 00    	mov    eax,DWORD PTR [rip+0xa7ab]        # 14000c0a0 <initialized>
   1400018f5:	85 c0                	test   eax,eax
   1400018f7:	75 0f                	jne    140001908 <__main+0x21>
   1400018f9:	c7 05 9d a7 00 00 01 	mov    DWORD PTR [rip+0xa79d],0x1        # 14000c0a0 <initialized>
   140001900:	00 00 00 
   140001903:	e8 67 ff ff ff       	call   14000186f <__do_global_ctors>
   140001908:	90                   	nop
   140001909:	48 83 c4 20          	add    rsp,0x20
   14000190d:	5d                   	pop    rbp
   14000190e:	c3                   	ret
   14000190f:	90                   	nop

0000000140001910 <_setargv>:
   140001910:	55                   	push   rbp
   140001911:	48 89 e5             	mov    rbp,rsp
   140001914:	b8 00 00 00 00       	mov    eax,0x0
   140001919:	5d                   	pop    rbp
   14000191a:	c3                   	ret
   14000191b:	90                   	nop
   14000191c:	90                   	nop
   14000191d:	90                   	nop
   14000191e:	90                   	nop
   14000191f:	90                   	nop

0000000140001920 <__dyn_tls_init>:
   140001920:	55                   	push   rbp
   140001921:	48 89 e5             	mov    rbp,rsp
   140001924:	48 83 ec 30          	sub    rsp,0x30
   140001928:	48 89 4d 10          	mov    QWORD PTR [rbp+0x10],rcx
   14000192c:	89 55 18             	mov    DWORD PTR [rbp+0x18],edx
   14000192f:	4c 89 45 20          	mov    QWORD PTR [rbp+0x20],r8
   140001933:	48 8b 05 06 6b 00 00 	mov    rax,QWORD PTR [rip+0x6b06]        # 140008440 <.refptr._CRT_MT>
   14000193a:	8b 00                	mov    eax,DWORD PTR [rax]
   14000193c:	83 f8 02             	cmp    eax,0x2
   14000193f:	74 0d                	je     14000194e <__dyn_tls_init+0x2e>
   140001941:	48 8b 05 f8 6a 00 00 	mov    rax,QWORD PTR [rip+0x6af8]        # 140008440 <.refptr._CRT_MT>
   140001948:	c7 00 02 00 00 00    	mov    DWORD PTR [rax],0x2
   14000194e:	83 7d 18 02          	cmp    DWORD PTR [rbp+0x18],0x2
   140001952:	74 23                	je     140001977 <__dyn_tls_init+0x57>
   140001954:	83 7d 18 01          	cmp    DWORD PTR [rbp+0x18],0x1
   140001958:	75 16                	jne    140001970 <__dyn_tls_init+0x50>
   14000195a:	48 8b 4d 20          	mov    rcx,QWORD PTR [rbp+0x20]
   14000195e:	8b 55 18             	mov    edx,DWORD PTR [rbp+0x18]
   140001961:	48 8b 45 10          	mov    rax,QWORD PTR [rbp+0x10]
   140001965:	49 89 c8             	mov    r8,rcx
   140001968:	48 89 c1             	mov    rcx,rax
   14000196b:	e8 61 0f 00 00       	call   1400028d1 <__mingw_TLScallback>
   140001970:	b8 01 00 00 00       	mov    eax,0x1
   140001975:	eb 46                	jmp    1400019bd <__dyn_tls_init+0x9d>
   140001977:	48 8d 05 d2 c6 00 00 	lea    rax,[rip+0xc6d2]        # 14000e050 <___crt_xp_end__>
   14000197e:	48 89 45 f8          	mov    QWORD PTR [rbp-0x8],rax
   140001982:	48 83 45 f8 08       	add    QWORD PTR [rbp-0x8],0x8
   140001987:	eb 22                	jmp    1400019ab <__dyn_tls_init+0x8b>
   140001989:	48 8b 45 f8          	mov    rax,QWORD PTR [rbp-0x8]
   14000198d:	48 89 45 f0          	mov    QWORD PTR [rbp-0x10],rax
   140001991:	48 8b 45 f0          	mov    rax,QWORD PTR [rbp-0x10]
   140001995:	48 8b 00             	mov    rax,QWORD PTR [rax]
   140001998:	48 85 c0             	test   rax,rax
   14000199b:	74 09                	je     1400019a6 <__dyn_tls_init+0x86>
   14000199d:	48 8b 45 f0          	mov    rax,QWORD PTR [rbp-0x10]
   1400019a1:	48 8b 00             	mov    rax,QWORD PTR [rax]
   1400019a4:	ff d0                	call   rax
   1400019a6:	48 83 45 f8 08       	add    QWORD PTR [rbp-0x8],0x8
   1400019ab:	48 8d 05 a6 c6 00 00 	lea    rax,[rip+0xc6a6]        # 14000e058 <__xd_z>
   1400019b2:	48 39 45 f8          	cmp    QWORD PTR [rbp-0x8],rax
   1400019b6:	75 d1                	jne    140001989 <__dyn_tls_init+0x69>
   1400019b8:	b8 01 00 00 00       	mov    eax,0x1
   1400019bd:	48 83 c4 30          	add    rsp,0x30
   1400019c1:	5d                   	pop    rbp
   1400019c2:	c3                   	ret

00000001400019c3 <__tlregdtor>:
   1400019c3:	55                   	push   rbp
   1400019c4:	48 89 e5             	mov    rbp,rsp
   1400019c7:	48 89 4d 10          	mov    QWORD PTR [rbp+0x10],rcx
   1400019cb:	48 83 7d 10 00       	cmp    QWORD PTR [rbp+0x10],0x0
   1400019d0:	75 07                	jne    1400019d9 <__tlregdtor+0x16>
   1400019d2:	b8 00 00 00 00       	mov    eax,0x0
   1400019d7:	eb 05                	jmp    1400019de <__tlregdtor+0x1b>
   1400019d9:	b8 00 00 00 00       	mov    eax,0x0
   1400019de:	5d                   	pop    rbp
   1400019df:	c3                   	ret

00000001400019e0 <__dyn_tls_dtor>:
   1400019e0:	55                   	push   rbp
   1400019e1:	48 89 e5             	mov    rbp,rsp
   1400019e4:	48 83 ec 20          	sub    rsp,0x20
   1400019e8:	48 89 4d 10          	mov    QWORD PTR [rbp+0x10],rcx
   1400019ec:	89 55 18             	mov    DWORD PTR [rbp+0x18],edx
   1400019ef:	4c 89 45 20          	mov    QWORD PTR [rbp+0x20],r8
   1400019f3:	83 7d 18 03          	cmp    DWORD PTR [rbp+0x18],0x3
   1400019f7:	74 0d                	je     140001a06 <__dyn_tls_dtor+0x26>
   1400019f9:	83 7d 18 00          	cmp    DWORD PTR [rbp+0x18],0x0
   1400019fd:	74 07                	je     140001a06 <__dyn_tls_dtor+0x26>
   1400019ff:	b8 01 00 00 00       	mov    eax,0x1
   140001a04:	eb 1b                	jmp    140001a21 <__dyn_tls_dtor+0x41>
   140001a06:	48 8b 4d 20          	mov    rcx,QWORD PTR [rbp+0x20]
   140001a0a:	8b 55 18             	mov    edx,DWORD PTR [rbp+0x18]
   140001a0d:	48 8b 45 10          	mov    rax,QWORD PTR [rbp+0x10]
   140001a11:	49 89 c8             	mov    r8,rcx
   140001a14:	48 89 c1             	mov    rcx,rax
   140001a17:	e8 b5 0e 00 00       	call   1400028d1 <__mingw_TLScallback>
   140001a1c:	b8 01 00 00 00       	mov    eax,0x1
   140001a21:	48 83 c4 20          	add    rsp,0x20
   140001a25:	5d                   	pop    rbp
   140001a26:	c3                   	ret
   140001a27:	90                   	nop
   140001a28:	90                   	nop
   140001a29:	90                   	nop
   140001a2a:	90                   	nop
   140001a2b:	90                   	nop
   140001a2c:	90                   	nop
   140001a2d:	90                   	nop
   140001a2e:	90                   	nop
   140001a2f:	90                   	nop

0000000140001a30 <_matherr>:
   140001a30:	55                   	push   rbp
   140001a31:	53                   	push   rbx
   140001a32:	48 81 ec 88 00 00 00 	sub    rsp,0x88
   140001a39:	48 8d 6c 24 50       	lea    rbp,[rsp+0x50]
   140001a3e:	0f 29 75 00          	movaps XMMWORD PTR [rbp+0x0],xmm6
   140001a42:	0f 29 7d 10          	movaps XMMWORD PTR [rbp+0x10],xmm7
   140001a46:	44 0f 29 45 20       	movaps XMMWORD PTR [rbp+0x20],xmm8
   140001a4b:	48 89 4d 50          	mov    QWORD PTR [rbp+0x50],rcx
   140001a4f:	48 8b 45 50          	mov    rax,QWORD PTR [rbp+0x50]
   140001a53:	8b 00                	mov    eax,DWORD PTR [rax]
   140001a55:	83 f8 06             	cmp    eax,0x6
   140001a58:	77 70                	ja     140001aca <_matherr+0x9a>
   140001a5a:	89 c0                	mov    eax,eax
   140001a5c:	48 8d 14 85 00 00 00 	lea    rdx,[rax*4+0x0]
   140001a63:	00 
   140001a64:	48 8d 05 f9 67 00 00 	lea    rax,[rip+0x67f9]        # 140008264 <.rdata+0x124>
   140001a6b:	8b 04 02             	mov    eax,DWORD PTR [rdx+rax*1]
   140001a6e:	48 98                	cdqe
   140001a70:	48 8d 15 ed 67 00 00 	lea    rdx,[rip+0x67ed]        # 140008264 <.rdata+0x124>
   140001a77:	48 01 d0             	add    rax,rdx
   140001a7a:	ff e0                	jmp    rax
   140001a7c:	48 8d 05 bd 66 00 00 	lea    rax,[rip+0x66bd]        # 140008140 <.rdata>
   140001a83:	48 89 45 f8          	mov    QWORD PTR [rbp-0x8],rax
   140001a87:	eb 4d                	jmp    140001ad6 <_matherr+0xa6>
   140001a89:	48 8d 05 cf 66 00 00 	lea    rax,[rip+0x66cf]        # 14000815f <.rdata+0x1f>
   140001a90:	48 89 45 f8          	mov    QWORD PTR [rbp-0x8],rax
   140001a94:	eb 40                	jmp    140001ad6 <_matherr+0xa6>
   140001a96:	48 8d 05 e3 66 00 00 	lea    rax,[rip+0x66e3]        # 140008180 <.rdata+0x40>
   140001a9d:	48 89 45 f8          	mov    QWORD PTR [rbp-0x8],rax
   140001aa1:	eb 33                	jmp    140001ad6 <_matherr+0xa6>
   140001aa3:	48 8d 05 f6 66 00 00 	lea    rax,[rip+0x66f6]        # 1400081a0 <.rdata+0x60>
   140001aaa:	48 89 45 f8          	mov    QWORD PTR [rbp-0x8],rax
   140001aae:	eb 26                	jmp    140001ad6 <_matherr+0xa6>
   140001ab0:	48 8d 05 11 67 00 00 	lea    rax,[rip+0x6711]        # 1400081c8 <.rdata+0x88>
   140001ab7:	48 89 45 f8          	mov    QWORD PTR [rbp-0x8],rax
   140001abb:	eb 19                	jmp    140001ad6 <_matherr+0xa6>
   140001abd:	48 8d 05 2c 67 00 00 	lea    rax,[rip+0x672c]        # 1400081f0 <.rdata+0xb0>
   140001ac4:	48 89 45 f8          	mov    QWORD PTR [rbp-0x8],rax
   140001ac8:	eb 0c                	jmp    140001ad6 <_matherr+0xa6>
   140001aca:	48 8d 05 55 67 00 00 	lea    rax,[rip+0x6755]        # 140008226 <.rdata+0xe6>
   140001ad1:	48 89 45 f8          	mov    QWORD PTR [rbp-0x8],rax
   140001ad5:	90                   	nop
   140001ad6:	48 8b 45 50          	mov    rax,QWORD PTR [rbp+0x50]
   140001ada:	f2 44 0f 10 40 20    	movsd  xmm8,QWORD PTR [rax+0x20]
   140001ae0:	48 8b 45 50          	mov    rax,QWORD PTR [rbp+0x50]
   140001ae4:	f2 0f 10 78 18       	movsd  xmm7,QWORD PTR [rax+0x18]
   140001ae9:	48 8b 45 50          	mov    rax,QWORD PTR [rbp+0x50]
   140001aed:	f2 0f 10 70 10       	movsd  xmm6,QWORD PTR [rax+0x10]
   140001af2:	48 8b 45 50          	mov    rax,QWORD PTR [rbp+0x50]
   140001af6:	48 8b 58 08          	mov    rbx,QWORD PTR [rax+0x8]
   140001afa:	b9 02 00 00 00       	mov    ecx,0x2
   140001aff:	e8 0c 17 00 00       	call   140003210 <__acrt_iob_func>
   140001b04:	48 89 c1             	mov    rcx,rax
   140001b07:	48 8b 45 f8          	mov    rax,QWORD PTR [rbp-0x8]
   140001b0b:	f2 44 0f 11 44 24 30 	movsd  QWORD PTR [rsp+0x30],xmm8
   140001b12:	f2 0f 11 7c 24 28    	movsd  QWORD PTR [rsp+0x28],xmm7
   140001b18:	f2 0f 11 74 24 20    	movsd  QWORD PTR [rsp+0x20],xmm6
   140001b1e:	49 89 d9             	mov    r9,rbx
   140001b21:	49 89 c0             	mov    r8,rax
   140001b24:	48 8d 05 0d 67 00 00 	lea    rax,[rip+0x670d]        # 140008238 <.rdata+0xf8>
   140001b2b:	48 89 c2             	mov    rdx,rax
   140001b2e:	e8 ed 13 00 00       	call   140002f20 <fprintf>
   140001b33:	b8 00 00 00 00       	mov    eax,0x0
   140001b38:	0f 28 75 00          	movaps xmm6,XMMWORD PTR [rbp+0x0]
   140001b3c:	0f 28 7d 10          	movaps xmm7,XMMWORD PTR [rbp+0x10]
   140001b40:	44 0f 28 45 20       	movaps xmm8,XMMWORD PTR [rbp+0x20]
   140001b45:	48 81 c4 88 00 00 00 	add    rsp,0x88
   140001b4c:	5b                   	pop    rbx
   140001b4d:	5d                   	pop    rbp
   140001b4e:	c3                   	ret
   140001b4f:	90                   	nop

0000000140001b50 <_fpreset>:
   140001b50:	55                   	push   rbp
   140001b51:	48 89 e5             	mov    rbp,rsp
   140001b54:	db e3                	fninit
   140001b56:	90                   	nop
   140001b57:	5d                   	pop    rbp
   140001b58:	c3                   	ret
   140001b59:	90                   	nop
   140001b5a:	90                   	nop
   140001b5b:	90                   	nop
   140001b5c:	90                   	nop
   140001b5d:	90                   	nop
   140001b5e:	90                   	nop
   140001b5f:	90                   	nop

0000000140001b60 <__report_error>:
   140001b60:	55                   	push   rbp
   140001b61:	53                   	push   rbx
   140001b62:	48 83 ec 38          	sub    rsp,0x38
   140001b66:	48 8d 6c 24 30       	lea    rbp,[rsp+0x30]
   140001b6b:	48 89 4d 20          	mov    QWORD PTR [rbp+0x20],rcx
   140001b6f:	48 89 55 28          	mov    QWORD PTR [rbp+0x28],rdx
   140001b73:	4c 89 45 30          	mov    QWORD PTR [rbp+0x30],r8
   140001b77:	4c 89 4d 38          	mov    QWORD PTR [rbp+0x38],r9
   140001b7b:	48 8d 45 28          	lea    rax,[rbp+0x28]
   140001b7f:	48 89 45 f8          	mov    QWORD PTR [rbp-0x8],rax
   140001b83:	b9 02 00 00 00       	mov    ecx,0x2
   140001b88:	e8 83 16 00 00       	call   140003210 <__acrt_iob_func>
   140001b8d:	49 89 c1             	mov    r9,rax
   140001b90:	41 b8 1b 00 00 00    	mov    r8d,0x1b
   140001b96:	ba 01 00 00 00       	mov    edx,0x1
   140001b9b:	48 8d 05 de 66 00 00 	lea    rax,[rip+0x66de]        # 140008280 <.rdata>
   140001ba2:	48 89 c1             	mov    rcx,rax
   140001ba5:	e8 8e 16 00 00       	call   140003238 <fwrite>
   140001baa:	48 8b 5d f8          	mov    rbx,QWORD PTR [rbp-0x8]
   140001bae:	b9 02 00 00 00       	mov    ecx,0x2
   140001bb3:	e8 58 16 00 00       	call   140003210 <__acrt_iob_func>
   140001bb8:	48 89 c1             	mov    rcx,rax
   140001bbb:	48 8b 45 20          	mov    rax,QWORD PTR [rbp+0x20]
   140001bbf:	49 89 d8             	mov    r8,rbx
   140001bc2:	48 89 c2             	mov    rdx,rax
   140001bc5:	e8 06 13 00 00       	call   140002ed0 <vfprintf>
   140001bca:	e8 e1 16 00 00       	call   1400032b0 <abort>
   140001bcf:	90                   	nop

0000000140001bd0 <mark_section_writable>:
   140001bd0:	55                   	push   rbp
   140001bd1:	48 89 e5             	mov    rbp,rsp
   140001bd4:	48 83 ec 60          	sub    rsp,0x60
   140001bd8:	48 89 4d 10          	mov    QWORD PTR [rbp+0x10],rcx
   140001bdc:	c7 45 fc 00 00 00 00 	mov    DWORD PTR [rbp-0x4],0x0
   140001be3:	e9 82 00 00 00       	jmp    140001c6a <mark_section_writable+0x9a>
   140001be8:	48 8b 0d 01 a5 00 00 	mov    rcx,QWORD PTR [rip+0xa501]        # 14000c0f0 <the_secs>
   140001bef:	8b 45 fc             	mov    eax,DWORD PTR [rbp-0x4]
   140001bf2:	48 63 d0             	movsxd rdx,eax
   140001bf5:	48 89 d0             	mov    rax,rdx
   140001bf8:	48 c1 e0 02          	shl    rax,0x2
   140001bfc:	48 01 d0             	add    rax,rdx
   140001bff:	48 c1 e0 03          	shl    rax,0x3
   140001c03:	48 01 c8             	add    rax,rcx
   140001c06:	48 8b 40 18          	mov    rax,QWORD PTR [rax+0x18]
   140001c0a:	48 39 45 10          	cmp    QWORD PTR [rbp+0x10],rax
   140001c0e:	72 56                	jb     140001c66 <mark_section_writable+0x96>
   140001c10:	48 8b 0d d9 a4 00 00 	mov    rcx,QWORD PTR [rip+0xa4d9]        # 14000c0f0 <the_secs>
   140001c17:	8b 45 fc             	mov    eax,DWORD PTR [rbp-0x4]
   140001c1a:	48 63 d0             	movsxd rdx,eax
   140001c1d:	48 89 d0             	mov    rax,rdx
   140001c20:	48 c1 e0 02          	shl    rax,0x2
   140001c24:	48 01 d0             	add    rax,rdx
   140001c27:	48 c1 e0 03          	shl    rax,0x3
   140001c2b:	48 01 c8             	add    rax,rcx
   140001c2e:	48 8b 48 18          	mov    rcx,QWORD PTR [rax+0x18]
   140001c32:	4c 8b 05 b7 a4 00 00 	mov    r8,QWORD PTR [rip+0xa4b7]        # 14000c0f0 <the_secs>
   140001c39:	8b 45 fc             	mov    eax,DWORD PTR [rbp-0x4]
   140001c3c:	48 63 d0             	movsxd rdx,eax
   140001c3f:	48 89 d0             	mov    rax,rdx
   140001c42:	48 c1 e0 02          	shl    rax,0x2
   140001c46:	48 01 d0             	add    rax,rdx
   140001c49:	48 c1 e0 03          	shl    rax,0x3
   140001c4d:	4c 01 c0             	add    rax,r8
   140001c50:	48 8b 40 20          	mov    rax,QWORD PTR [rax+0x20]
   140001c54:	8b 40 08             	mov    eax,DWORD PTR [rax+0x8]
   140001c57:	89 c0                	mov    eax,eax
   140001c59:	48 01 c8             	add    rax,rcx
   140001c5c:	48 39 45 10          	cmp    QWORD PTR [rbp+0x10],rax
   140001c60:	0f 82 42 02 00 00    	jb     140001ea8 <mark_section_writable+0x2d8>
   140001c66:	83 45 fc 01          	add    DWORD PTR [rbp-0x4],0x1
   140001c6a:	8b 05 88 a4 00 00    	mov    eax,DWORD PTR [rip+0xa488]        # 14000c0f8 <maxSections>
   140001c70:	39 45 fc             	cmp    DWORD PTR [rbp-0x4],eax
   140001c73:	0f 8c 6f ff ff ff    	jl     140001be8 <mark_section_writable+0x18>
   140001c79:	48 8b 45 10          	mov    rax,QWORD PTR [rbp+0x10]
   140001c7d:	48 89 c1             	mov    rcx,rax
   140001c80:	e8 26 0f 00 00       	call   140002bab <__mingw_GetSectionForAddress>
   140001c85:	48 89 45 f0          	mov    QWORD PTR [rbp-0x10],rax
   140001c89:	48 83 7d f0 00       	cmp    QWORD PTR [rbp-0x10],0x0
   140001c8e:	75 16                	jne    140001ca6 <mark_section_writable+0xd6>
   140001c90:	48 8b 45 10          	mov    rax,QWORD PTR [rbp+0x10]
   140001c94:	48 89 c2             	mov    rdx,rax
   140001c97:	48 8d 05 02 66 00 00 	lea    rax,[rip+0x6602]        # 1400082a0 <.rdata+0x20>
   140001c9e:	48 89 c1             	mov    rcx,rax
   140001ca1:	e8 ba fe ff ff       	call   140001b60 <__report_error>
   140001ca6:	48 8b 0d 43 a4 00 00 	mov    rcx,QWORD PTR [rip+0xa443]        # 14000c0f0 <the_secs>
   140001cad:	8b 45 fc             	mov    eax,DWORD PTR [rbp-0x4]
   140001cb0:	48 63 d0             	movsxd rdx,eax
   140001cb3:	48 89 d0             	mov    rax,rdx
   140001cb6:	48 c1 e0 02          	shl    rax,0x2
   140001cba:	48 01 d0             	add    rax,rdx
   140001cbd:	48 c1 e0 03          	shl    rax,0x3
   140001cc1:	48 8d 14 01          	lea    rdx,[rcx+rax*1]
   140001cc5:	48 8b 45 f0          	mov    rax,QWORD PTR [rbp-0x10]
   140001cc9:	48 89 42 20          	mov    QWORD PTR [rdx+0x20],rax
   140001ccd:	48 8b 0d 1c a4 00 00 	mov    rcx,QWORD PTR [rip+0xa41c]        # 14000c0f0 <the_secs>
   140001cd4:	8b 45 fc             	mov    eax,DWORD PTR [rbp-0x4]
   140001cd7:	48 63 d0             	movsxd rdx,eax
   140001cda:	48 89 d0             	mov    rax,rdx
   140001cdd:	48 c1 e0 02          	shl    rax,0x2
   140001ce1:	48 01 d0             	add    rax,rdx
   140001ce4:	48 c1 e0 03          	shl    rax,0x3
   140001ce8:	48 01 c8             	add    rax,rcx
   140001ceb:	c7 00 00 00 00 00    	mov    DWORD PTR [rax],0x0
   140001cf1:	e8 01 10 00 00       	call   140002cf7 <_GetPEImageBase>
   140001cf6:	48 89 c1             	mov    rcx,rax
   140001cf9:	48 8b 45 f0          	mov    rax,QWORD PTR [rbp-0x10]
   140001cfd:	8b 40 0c             	mov    eax,DWORD PTR [rax+0xc]
   140001d00:	41 89 c1             	mov    r9d,eax
   140001d03:	4c 8b 05 e6 a3 00 00 	mov    r8,QWORD PTR [rip+0xa3e6]        # 14000c0f0 <the_secs>
   140001d0a:	8b 45 fc             	mov    eax,DWORD PTR [rbp-0x4]
   140001d0d:	48 63 d0             	movsxd rdx,eax
   140001d10:	48 89 d0             	mov    rax,rdx
   140001d13:	48 c1 e0 02          	shl    rax,0x2
   140001d17:	48 01 d0             	add    rax,rdx
   140001d1a:	48 c1 e0 03          	shl    rax,0x3
   140001d1e:	4c 01 c0             	add    rax,r8
   140001d21:	4a 8d 14 09          	lea    rdx,[rcx+r9*1]
   140001d25:	48 89 50 18          	mov    QWORD PTR [rax+0x18],rdx
   140001d29:	48 8b 0d c0 a3 00 00 	mov    rcx,QWORD PTR [rip+0xa3c0]        # 14000c0f0 <the_secs>
   140001d30:	8b 45 fc             	mov    eax,DWORD PTR [rbp-0x4]
   140001d33:	48 63 d0             	movsxd rdx,eax
   140001d36:	48 89 d0             	mov    rax,rdx
   140001d39:	48 c1 e0 02          	shl    rax,0x2
   140001d3d:	48 01 d0             	add    rax,rdx
   140001d40:	48 c1 e0 03          	shl    rax,0x3
   140001d44:	48 01 c8             	add    rax,rcx
   140001d47:	48 8b 40 18          	mov    rax,QWORD PTR [rax+0x18]
   140001d4b:	48 8d 55 c0          	lea    rdx,[rbp-0x40]
   140001d4f:	41 b8 30 00 00 00    	mov    r8d,0x30
   140001d55:	48 89 c1             	mov    rcx,rax
   140001d58:	48 8b 05 01 b7 00 00 	mov    rax,QWORD PTR [rip+0xb701]        # 14000d460 <__imp_VirtualQuery>
   140001d5f:	ff d0                	call   rax
   140001d61:	48 85 c0             	test   rax,rax
   140001d64:	75 3d                	jne    140001da3 <mark_section_writable+0x1d3>
   140001d66:	48 8b 0d 83 a3 00 00 	mov    rcx,QWORD PTR [rip+0xa383]        # 14000c0f0 <the_secs>
   140001d6d:	8b 45 fc             	mov    eax,DWORD PTR [rbp-0x4]
   140001d70:	48 63 d0             	movsxd rdx,eax
   140001d73:	48 89 d0             	mov    rax,rdx
   140001d76:	48 c1 e0 02          	shl    rax,0x2
   140001d7a:	48 01 d0             	add    rax,rdx
   140001d7d:	48 c1 e0 03          	shl    rax,0x3
   140001d81:	48 01 c8             	add    rax,rcx
   140001d84:	48 8b 50 18          	mov    rdx,QWORD PTR [rax+0x18]
   140001d88:	48 8b 45 f0          	mov    rax,QWORD PTR [rbp-0x10]
   140001d8c:	8b 40 08             	mov    eax,DWORD PTR [rax+0x8]
   140001d8f:	49 89 d0             	mov    r8,rdx
   140001d92:	89 c2                	mov    edx,eax
   140001d94:	48 8d 05 25 65 00 00 	lea    rax,[rip+0x6525]        # 1400082c0 <.rdata+0x40>
   140001d9b:	48 89 c1             	mov    rcx,rax
   140001d9e:	e8 bd fd ff ff       	call   140001b60 <__report_error>
   140001da3:	8b 45 e4             	mov    eax,DWORD PTR [rbp-0x1c]
   140001da6:	83 f8 40             	cmp    eax,0x40
   140001da9:	0f 84 e8 00 00 00    	je     140001e97 <mark_section_writable+0x2c7>
   140001daf:	8b 45 e4             	mov    eax,DWORD PTR [rbp-0x1c]
   140001db2:	83 f8 04             	cmp    eax,0x4
   140001db5:	0f 84 dc 00 00 00    	je     140001e97 <mark_section_writable+0x2c7>
   140001dbb:	8b 45 e4             	mov    eax,DWORD PTR [rbp-0x1c]
   140001dbe:	3d 80 00 00 00       	cmp    eax,0x80
   140001dc3:	0f 84 ce 00 00 00    	je     140001e97 <mark_section_writable+0x2c7>
   140001dc9:	8b 45 e4             	mov    eax,DWORD PTR [rbp-0x1c]
   140001dcc:	83 f8 08             	cmp    eax,0x8
   140001dcf:	0f 84 c2 00 00 00    	je     140001e97 <mark_section_writable+0x2c7>
   140001dd5:	8b 45 e4             	mov    eax,DWORD PTR [rbp-0x1c]
   140001dd8:	83 f8 02             	cmp    eax,0x2
   140001ddb:	75 09                	jne    140001de6 <mark_section_writable+0x216>
   140001ddd:	c7 45 f8 04 00 00 00 	mov    DWORD PTR [rbp-0x8],0x4
   140001de4:	eb 07                	jmp    140001ded <mark_section_writable+0x21d>
   140001de6:	c7 45 f8 40 00 00 00 	mov    DWORD PTR [rbp-0x8],0x40
   140001ded:	48 8b 0d fc a2 00 00 	mov    rcx,QWORD PTR [rip+0xa2fc]        # 14000c0f0 <the_secs>
   140001df4:	8b 45 fc             	mov    eax,DWORD PTR [rbp-0x4]
   140001df7:	48 63 d0             	movsxd rdx,eax
   140001dfa:	48 89 d0             	mov    rax,rdx
   140001dfd:	48 c1 e0 02          	shl    rax,0x2
   140001e01:	48 01 d0             	add    rax,rdx
   140001e04:	48 c1 e0 03          	shl    rax,0x3
   140001e08:	48 8d 14 01          	lea    rdx,[rcx+rax*1]
   140001e0c:	48 8b 45 c0          	mov    rax,QWORD PTR [rbp-0x40]
   140001e10:	48 89 42 08          	mov    QWORD PTR [rdx+0x8],rax
   140001e14:	48 8b 0d d5 a2 00 00 	mov    rcx,QWORD PTR [rip+0xa2d5]        # 14000c0f0 <the_secs>
   140001e1b:	8b 45 fc             	mov    eax,DWORD PTR [rbp-0x4]
   140001e1e:	48 63 d0             	movsxd rdx,eax
   140001e21:	48 89 d0             	mov    rax,rdx
   140001e24:	48 c1 e0 02          	shl    rax,0x2
   140001e28:	48 01 d0             	add    rax,rdx
   140001e2b:	48 c1 e0 03          	shl    rax,0x3
   140001e2f:	48 8d 14 01          	lea    rdx,[rcx+rax*1]
   140001e33:	48 8b 45 d8          	mov    rax,QWORD PTR [rbp-0x28]
   140001e37:	48 89 42 10          	mov    QWORD PTR [rdx+0x10],rax
   140001e3b:	48 8b 0d ae a2 00 00 	mov    rcx,QWORD PTR [rip+0xa2ae]        # 14000c0f0 <the_secs>
   140001e42:	8b 45 fc             	mov    eax,DWORD PTR [rbp-0x4]
   140001e45:	48 63 d0             	movsxd rdx,eax
   140001e48:	48 89 d0             	mov    rax,rdx
   140001e4b:	48 c1 e0 02          	shl    rax,0x2
   140001e4f:	48 01 d0             	add    rax,rdx
   140001e52:	48 c1 e0 03          	shl    rax,0x3
   140001e56:	48 01 c8             	add    rax,rcx
   140001e59:	49 89 c0             	mov    r8,rax
   140001e5c:	48 8b 55 d8          	mov    rdx,QWORD PTR [rbp-0x28]
   140001e60:	48 8b 45 c0          	mov    rax,QWORD PTR [rbp-0x40]
   140001e64:	8b 4d f8             	mov    ecx,DWORD PTR [rbp-0x8]
   140001e67:	4d 89 c1             	mov    r9,r8
   140001e6a:	41 89 c8             	mov    r8d,ecx
   140001e6d:	48 89 c1             	mov    rcx,rax
   140001e70:	48 8b 05 e1 b5 00 00 	mov    rax,QWORD PTR [rip+0xb5e1]        # 14000d458 <__imp_VirtualProtect>
   140001e77:	ff d0                	call   rax
   140001e79:	85 c0                	test   eax,eax
   140001e7b:	75 1a                	jne    140001e97 <mark_section_writable+0x2c7>
   140001e7d:	48 8b 05 8c b5 00 00 	mov    rax,QWORD PTR [rip+0xb58c]        # 14000d410 <__imp_GetLastError>
   140001e84:	ff d0                	call   rax
   140001e86:	89 c2                	mov    edx,eax
   140001e88:	48 8d 05 69 64 00 00 	lea    rax,[rip+0x6469]        # 1400082f8 <.rdata+0x78>
   140001e8f:	48 89 c1             	mov    rcx,rax
   140001e92:	e8 c9 fc ff ff       	call   140001b60 <__report_error>
   140001e97:	8b 05 5b a2 00 00    	mov    eax,DWORD PTR [rip+0xa25b]        # 14000c0f8 <maxSections>
   140001e9d:	83 c0 01             	add    eax,0x1
   140001ea0:	89 05 52 a2 00 00    	mov    DWORD PTR [rip+0xa252],eax        # 14000c0f8 <maxSections>
   140001ea6:	eb 01                	jmp    140001ea9 <mark_section_writable+0x2d9>
   140001ea8:	90                   	nop
   140001ea9:	48 83 c4 60          	add    rsp,0x60
   140001ead:	5d                   	pop    rbp
   140001eae:	c3                   	ret

0000000140001eaf <restore_modified_sections>:
   140001eaf:	55                   	push   rbp
   140001eb0:	48 89 e5             	mov    rbp,rsp
   140001eb3:	48 83 ec 30          	sub    rsp,0x30
   140001eb7:	c7 45 fc 00 00 00 00 	mov    DWORD PTR [rbp-0x4],0x0
   140001ebe:	e9 ad 00 00 00       	jmp    140001f70 <restore_modified_sections+0xc1>
   140001ec3:	48 8b 0d 26 a2 00 00 	mov    rcx,QWORD PTR [rip+0xa226]        # 14000c0f0 <the_secs>
   140001eca:	8b 45 fc             	mov    eax,DWORD PTR [rbp-0x4]
   140001ecd:	48 63 d0             	movsxd rdx,eax
   140001ed0:	48 89 d0             	mov    rax,rdx
   140001ed3:	48 c1 e0 02          	shl    rax,0x2
   140001ed7:	48 01 d0             	add    rax,rdx
   140001eda:	48 c1 e0 03          	shl    rax,0x3
   140001ede:	48 01 c8             	add    rax,rcx
   140001ee1:	8b 00                	mov    eax,DWORD PTR [rax]
   140001ee3:	85 c0                	test   eax,eax
   140001ee5:	0f 84 80 00 00 00    	je     140001f6b <restore_modified_sections+0xbc>
   140001eeb:	48 8b 0d fe a1 00 00 	mov    rcx,QWORD PTR [rip+0xa1fe]        # 14000c0f0 <the_secs>
   140001ef2:	8b 45 fc             	mov    eax,DWORD PTR [rbp-0x4]
   140001ef5:	48 63 d0             	movsxd rdx,eax
   140001ef8:	48 89 d0             	mov    rax,rdx
   140001efb:	48 c1 e0 02          	shl    rax,0x2
   140001eff:	48 01 d0             	add    rax,rdx
   140001f02:	48 c1 e0 03          	shl    rax,0x3
   140001f06:	48 01 c8             	add    rax,rcx
   140001f09:	44 8b 10             	mov    r10d,DWORD PTR [rax]
   140001f0c:	48 8b 0d dd a1 00 00 	mov    rcx,QWORD PTR [rip+0xa1dd]        # 14000c0f0 <the_secs>
   140001f13:	8b 45 fc             	mov    eax,DWORD PTR [rbp-0x4]
   140001f16:	48 63 d0             	movsxd rdx,eax
   140001f19:	48 89 d0             	mov    rax,rdx
   140001f1c:	48 c1 e0 02          	shl    rax,0x2
   140001f20:	48 01 d0             	add    rax,rdx
   140001f23:	48 c1 e0 03          	shl    rax,0x3
   140001f27:	48 01 c8             	add    rax,rcx
   140001f2a:	48 8b 48 10          	mov    rcx,QWORD PTR [rax+0x10]
   140001f2e:	4c 8b 05 bb a1 00 00 	mov    r8,QWORD PTR [rip+0xa1bb]        # 14000c0f0 <the_secs>
   140001f35:	8b 45 fc             	mov    eax,DWORD PTR [rbp-0x4]
   140001f38:	48 63 d0             	movsxd rdx,eax
   140001f3b:	48 89 d0             	mov    rax,rdx
   140001f3e:	48 c1 e0 02          	shl    rax,0x2
   140001f42:	48 01 d0             	add    rax,rdx
   140001f45:	48 c1 e0 03          	shl    rax,0x3
   140001f49:	4c 01 c0             	add    rax,r8
   140001f4c:	48 8b 40 08          	mov    rax,QWORD PTR [rax+0x8]
   140001f50:	48 8d 55 f8          	lea    rdx,[rbp-0x8]
   140001f54:	49 89 d1             	mov    r9,rdx
   140001f57:	45 89 d0             	mov    r8d,r10d
   140001f5a:	48 89 ca             	mov    rdx,rcx
   140001f5d:	48 89 c1             	mov    rcx,rax
   140001f60:	48 8b 05 f1 b4 00 00 	mov    rax,QWORD PTR [rip+0xb4f1]        # 14000d458 <__imp_VirtualProtect>
   140001f67:	ff d0                	call   rax
   140001f69:	eb 01                	jmp    140001f6c <restore_modified_sections+0xbd>
   140001f6b:	90                   	nop
   140001f6c:	83 45 fc 01          	add    DWORD PTR [rbp-0x4],0x1
   140001f70:	8b 05 82 a1 00 00    	mov    eax,DWORD PTR [rip+0xa182]        # 14000c0f8 <maxSections>
   140001f76:	39 45 fc             	cmp    DWORD PTR [rbp-0x4],eax
   140001f79:	0f 8c 44 ff ff ff    	jl     140001ec3 <restore_modified_sections+0x14>
   140001f7f:	90                   	nop
   140001f80:	90                   	nop
   140001f81:	48 83 c4 30          	add    rsp,0x30
   140001f85:	5d                   	pop    rbp
   140001f86:	c3                   	ret

0000000140001f87 <__write_memory>:
   140001f87:	55                   	push   rbp
   140001f88:	48 89 e5             	mov    rbp,rsp
   140001f8b:	48 83 ec 20          	sub    rsp,0x20
   140001f8f:	48 89 4d 10          	mov    QWORD PTR [rbp+0x10],rcx
   140001f93:	48 89 55 18          	mov    QWORD PTR [rbp+0x18],rdx
   140001f97:	4c 89 45 20          	mov    QWORD PTR [rbp+0x20],r8
   140001f9b:	48 83 7d 20 00       	cmp    QWORD PTR [rbp+0x20],0x0
   140001fa0:	74 25                	je     140001fc7 <__write_memory+0x40>
   140001fa2:	48 8b 45 10          	mov    rax,QWORD PTR [rbp+0x10]
   140001fa6:	48 89 c1             	mov    rcx,rax
   140001fa9:	e8 22 fc ff ff       	call   140001bd0 <mark_section_writable>
   140001fae:	48 8b 4d 20          	mov    rcx,QWORD PTR [rbp+0x20]
   140001fb2:	48 8b 55 18          	mov    rdx,QWORD PTR [rbp+0x18]
   140001fb6:	48 8b 45 10          	mov    rax,QWORD PTR [rbp+0x10]
   140001fba:	49 89 c8             	mov    r8,rcx
   140001fbd:	48 89 c1             	mov    rcx,rax
   140001fc0:	e8 13 13 00 00       	call   1400032d8 <memcpy>
   140001fc5:	eb 01                	jmp    140001fc8 <__write_memory+0x41>
   140001fc7:	90                   	nop
   140001fc8:	48 83 c4 20          	add    rsp,0x20
   140001fcc:	5d                   	pop    rbp
   140001fcd:	c3                   	ret

0000000140001fce <do_pseudo_reloc>:
   140001fce:	55                   	push   rbp
   140001fcf:	48 89 e5             	mov    rbp,rsp
   140001fd2:	48 83 c4 80          	add    rsp,0xffffffffffffff80
   140001fd6:	48 89 4d 10          	mov    QWORD PTR [rbp+0x10],rcx
   140001fda:	48 89 55 18          	mov    QWORD PTR [rbp+0x18],rdx
   140001fde:	4c 89 45 20          	mov    QWORD PTR [rbp+0x20],r8
   140001fe2:	48 8b 45 18          	mov    rax,QWORD PTR [rbp+0x18]
   140001fe6:	48 2b 45 10          	sub    rax,QWORD PTR [rbp+0x10]
   140001fea:	48 89 45 e0          	mov    QWORD PTR [rbp-0x20],rax
   140001fee:	48 8b 45 10          	mov    rax,QWORD PTR [rbp+0x10]
   140001ff2:	48 89 45 f8          	mov    QWORD PTR [rbp-0x8],rax
   140001ff6:	48 83 7d e0 07       	cmp    QWORD PTR [rbp-0x20],0x7
   140001ffb:	0f 8e 50 03 00 00    	jle    140002351 <do_pseudo_reloc+0x383>
   140002001:	48 83 7d e0 0b       	cmp    QWORD PTR [rbp-0x20],0xb
   140002006:	7e 25                	jle    14000202d <do_pseudo_reloc+0x5f>
   140002008:	48 8b 45 f8          	mov    rax,QWORD PTR [rbp-0x8]
   14000200c:	8b 00                	mov    eax,DWORD PTR [rax]
   14000200e:	85 c0                	test   eax,eax
   140002010:	75 1b                	jne    14000202d <do_pseudo_reloc+0x5f>
   140002012:	48 8b 45 f8          	mov    rax,QWORD PTR [rbp-0x8]
   140002016:	8b 40 04             	mov    eax,DWORD PTR [rax+0x4]
   140002019:	85 c0                	test   eax,eax
   14000201b:	75 10                	jne    14000202d <do_pseudo_reloc+0x5f>
   14000201d:	48 8b 45 f8          	mov    rax,QWORD PTR [rbp-0x8]
   140002021:	8b 40 08             	mov    eax,DWORD PTR [rax+0x8]
   140002024:	85 c0                	test   eax,eax
   140002026:	75 05                	jne    14000202d <do_pseudo_reloc+0x5f>
   140002028:	48 83 45 f8 0c       	add    QWORD PTR [rbp-0x8],0xc
   14000202d:	48 8b 45 f8          	mov    rax,QWORD PTR [rbp-0x8]
   140002031:	8b 00                	mov    eax,DWORD PTR [rax]
   140002033:	85 c0                	test   eax,eax
   140002035:	75 0b                	jne    140002042 <do_pseudo_reloc+0x74>
   140002037:	48 8b 45 f8          	mov    rax,QWORD PTR [rbp-0x8]
   14000203b:	8b 40 04             	mov    eax,DWORD PTR [rax+0x4]
   14000203e:	85 c0                	test   eax,eax
   140002040:	74 59                	je     14000209b <do_pseudo_reloc+0xcd>
   140002042:	48 8b 45 f8          	mov    rax,QWORD PTR [rbp-0x8]
   140002046:	48 89 45 e8          	mov    QWORD PTR [rbp-0x18],rax
   14000204a:	eb 40                	jmp    14000208c <do_pseudo_reloc+0xbe>
   14000204c:	48 8b 45 e8          	mov    rax,QWORD PTR [rbp-0x18]
   140002050:	8b 40 04             	mov    eax,DWORD PTR [rax+0x4]
   140002053:	89 c2                	mov    edx,eax
   140002055:	48 8b 45 20          	mov    rax,QWORD PTR [rbp+0x20]
   140002059:	48 01 d0             	add    rax,rdx
   14000205c:	48 89 45 e0          	mov    QWORD PTR [rbp-0x20],rax
   140002060:	48 8b 45 e0          	mov    rax,QWORD PTR [rbp-0x20]
   140002064:	8b 10                	mov    edx,DWORD PTR [rax]
   140002066:	48 8b 45 e8          	mov    rax,QWORD PTR [rbp-0x18]
   14000206a:	8b 00                	mov    eax,DWORD PTR [rax]
   14000206c:	01 d0                	add    eax,edx
   14000206e:	89 45 b4             	mov    DWORD PTR [rbp-0x4c],eax
   140002071:	48 8b 45 e0          	mov    rax,QWORD PTR [rbp-0x20]
   140002075:	48 8d 55 b4          	lea    rdx,[rbp-0x4c]
   140002079:	41 b8 04 00 00 00    	mov    r8d,0x4
   14000207f:	48 89 c1             	mov    rcx,rax
   140002082:	e8 00 ff ff ff       	call   140001f87 <__write_memory>
   140002087:	48 83 45 e8 08       	add    QWORD PTR [rbp-0x18],0x8
   14000208c:	48 8b 45 e8          	mov    rax,QWORD PTR [rbp-0x18]
   140002090:	48 3b 45 18          	cmp    rax,QWORD PTR [rbp+0x18]
   140002094:	72 b6                	jb     14000204c <do_pseudo_reloc+0x7e>
   140002096:	e9 b7 02 00 00       	jmp    140002352 <do_pseudo_reloc+0x384>
   14000209b:	48 8b 45 f8          	mov    rax,QWORD PTR [rbp-0x8]
   14000209f:	8b 40 08             	mov    eax,DWORD PTR [rax+0x8]
   1400020a2:	83 f8 01             	cmp    eax,0x1
   1400020a5:	74 18                	je     1400020bf <do_pseudo_reloc+0xf1>
   1400020a7:	48 8b 45 f8          	mov    rax,QWORD PTR [rbp-0x8]
   1400020ab:	8b 40 08             	mov    eax,DWORD PTR [rax+0x8]
   1400020ae:	89 c2                	mov    edx,eax
   1400020b0:	48 8d 05 69 62 00 00 	lea    rax,[rip+0x6269]        # 140008320 <.rdata+0xa0>
   1400020b7:	48 89 c1             	mov    rcx,rax
   1400020ba:	e8 a1 fa ff ff       	call   140001b60 <__report_error>
   1400020bf:	48 8b 45 f8          	mov    rax,QWORD PTR [rbp-0x8]
   1400020c3:	48 83 c0 0c          	add    rax,0xc
   1400020c7:	48 89 45 f0          	mov    QWORD PTR [rbp-0x10],rax
   1400020cb:	e9 71 02 00 00       	jmp    140002341 <do_pseudo_reloc+0x373>
   1400020d0:	48 8b 45 f0          	mov    rax,QWORD PTR [rbp-0x10]
   1400020d4:	8b 40 04             	mov    eax,DWORD PTR [rax+0x4]
   1400020d7:	89 c2                	mov    edx,eax
   1400020d9:	48 8b 45 20          	mov    rax,QWORD PTR [rbp+0x20]
   1400020dd:	48 01 d0             	add    rax,rdx
   1400020e0:	48 89 45 e0          	mov    QWORD PTR [rbp-0x20],rax
   1400020e4:	48 8b 45 f0          	mov    rax,QWORD PTR [rbp-0x10]
   1400020e8:	8b 00                	mov    eax,DWORD PTR [rax]
   1400020ea:	89 c2                	mov    edx,eax
   1400020ec:	48 8b 45 20          	mov    rax,QWORD PTR [rbp+0x20]
   1400020f0:	48 01 d0             	add    rax,rdx
   1400020f3:	48 89 45 d8          	mov    QWORD PTR [rbp-0x28],rax
   1400020f7:	48 8b 45 d8          	mov    rax,QWORD PTR [rbp-0x28]
   1400020fb:	48 8b 00             	mov    rax,QWORD PTR [rax]
   1400020fe:	48 89 45 d8          	mov    QWORD PTR [rbp-0x28],rax
   140002102:	48 8b 45 f0          	mov    rax,QWORD PTR [rbp-0x10]
   140002106:	8b 40 08             	mov    eax,DWORD PTR [rax+0x8]
   140002109:	0f b6 c0             	movzx  eax,al
   14000210c:	83 f8 40             	cmp    eax,0x40
   14000210f:	0f 84 b6 00 00 00    	je     1400021cb <do_pseudo_reloc+0x1fd>
   140002115:	83 f8 40             	cmp    eax,0x40
   140002118:	0f 87 ba 00 00 00    	ja     1400021d8 <do_pseudo_reloc+0x20a>
   14000211e:	83 f8 20             	cmp    eax,0x20
   140002121:	74 77                	je     14000219a <do_pseudo_reloc+0x1cc>
   140002123:	83 f8 20             	cmp    eax,0x20
   140002126:	0f 87 ac 00 00 00    	ja     1400021d8 <do_pseudo_reloc+0x20a>
   14000212c:	83 f8 08             	cmp    eax,0x8
   14000212f:	74 0a                	je     14000213b <do_pseudo_reloc+0x16d>
   140002131:	83 f8 10             	cmp    eax,0x10
   140002134:	74 38                	je     14000216e <do_pseudo_reloc+0x1a0>
   140002136:	e9 9d 00 00 00       	jmp    1400021d8 <do_pseudo_reloc+0x20a>
   14000213b:	48 8b 45 e0          	mov    rax,QWORD PTR [rbp-0x20]
   14000213f:	0f b6 00             	movzx  eax,BYTE PTR [rax]
   140002142:	0f b6 c0             	movzx  eax,al
   140002145:	48 89 45 b8          	mov    QWORD PTR [rbp-0x48],rax
   140002149:	48 8b 45 b8          	mov    rax,QWORD PTR [rbp-0x48]
   14000214d:	25 80 00 00 00       	and    eax,0x80
   140002152:	48 85 c0             	test   rax,rax
   140002155:	0f 84 a0 00 00 00    	je     1400021fb <do_pseudo_reloc+0x22d>
   14000215b:	48 8b 45 b8          	mov    rax,QWORD PTR [rbp-0x48]
   14000215f:	48 0d 00 ff ff ff    	or     rax,0xffffffffffffff00
   140002165:	48 89 45 b8          	mov    QWORD PTR [rbp-0x48],rax
   140002169:	e9 8d 00 00 00       	jmp    1400021fb <do_pseudo_reloc+0x22d>
   14000216e:	48 8b 45 e0          	mov    rax,QWORD PTR [rbp-0x20]
   140002172:	0f b7 00             	movzx  eax,WORD PTR [rax]
   140002175:	0f b7 c0             	movzx  eax,ax
   140002178:	48 89 45 b8          	mov    QWORD PTR [rbp-0x48],rax
   14000217c:	48 8b 45 b8          	mov    rax,QWORD PTR [rbp-0x48]
   140002180:	25 00 80 00 00       	and    eax,0x8000
   140002185:	48 85 c0             	test   rax,rax
   140002188:	74 74                	je     1400021fe <do_pseudo_reloc+0x230>
   14000218a:	48 8b 45 b8          	mov    rax,QWORD PTR [rbp-0x48]
   14000218e:	48 0d 00 00 ff ff    	or     rax,0xffffffffffff0000
   140002194:	48 89 45 b8          	mov    QWORD PTR [rbp-0x48],rax
   140002198:	eb 64                	jmp    1400021fe <do_pseudo_reloc+0x230>
   14000219a:	48 8b 45 e0          	mov    rax,QWORD PTR [rbp-0x20]
   14000219e:	8b 00                	mov    eax,DWORD PTR [rax]
   1400021a0:	89 c0                	mov    eax,eax
   1400021a2:	48 89 45 b8          	mov    QWORD PTR [rbp-0x48],rax
   1400021a6:	48 8b 45 b8          	mov    rax,QWORD PTR [rbp-0x48]
   1400021aa:	25 00 00 00 80       	and    eax,0x80000000
   1400021af:	48 85 c0             	test   rax,rax
   1400021b2:	74 4d                	je     140002201 <do_pseudo_reloc+0x233>
   1400021b4:	48 8b 45 b8          	mov    rax,QWORD PTR [rbp-0x48]
   1400021b8:	48 ba 00 00 00 00 ff 	movabs rdx,0xffffffff00000000
   1400021bf:	ff ff ff 
   1400021c2:	48 09 d0             	or     rax,rdx
   1400021c5:	48 89 45 b8          	mov    QWORD PTR [rbp-0x48],rax
   1400021c9:	eb 36                	jmp    140002201 <do_pseudo_reloc+0x233>
   1400021cb:	48 8b 45 e0          	mov    rax,QWORD PTR [rbp-0x20]
   1400021cf:	48 8b 00             	mov    rax,QWORD PTR [rax]
   1400021d2:	48 89 45 b8          	mov    QWORD PTR [rbp-0x48],rax
   1400021d6:	eb 2a                	jmp    140002202 <do_pseudo_reloc+0x234>
   1400021d8:	48 c7 45 b8 00 00 00 	mov    QWORD PTR [rbp-0x48],0x0
   1400021df:	00 
   1400021e0:	48 8b 45 f0          	mov    rax,QWORD PTR [rbp-0x10]
   1400021e4:	8b 40 08             	mov    eax,DWORD PTR [rax+0x8]
   1400021e7:	0f b6 c0             	movzx  eax,al
   1400021ea:	89 c2                	mov    edx,eax
   1400021ec:	48 8d 05 65 61 00 00 	lea    rax,[rip+0x6165]        # 140008358 <.rdata+0xd8>
   1400021f3:	48 89 c1             	mov    rcx,rax
   1400021f6:	e8 65 f9 ff ff       	call   140001b60 <__report_error>
   1400021fb:	90                   	nop
   1400021fc:	eb 04                	jmp    140002202 <do_pseudo_reloc+0x234>
   1400021fe:	90                   	nop
   1400021ff:	eb 01                	jmp    140002202 <do_pseudo_reloc+0x234>
   140002201:	90                   	nop
   140002202:	48 8b 4d b8          	mov    rcx,QWORD PTR [rbp-0x48]
   140002206:	48 8b 45 f0          	mov    rax,QWORD PTR [rbp-0x10]
   14000220a:	8b 00                	mov    eax,DWORD PTR [rax]
   14000220c:	89 c2                	mov    edx,eax
   14000220e:	48 8b 45 20          	mov    rax,QWORD PTR [rbp+0x20]
   140002212:	48 01 c2             	add    rdx,rax
   140002215:	48 89 c8             	mov    rax,rcx
   140002218:	48 29 d0             	sub    rax,rdx
   14000221b:	48 89 45 b8          	mov    QWORD PTR [rbp-0x48],rax
   14000221f:	48 8b 55 b8          	mov    rdx,QWORD PTR [rbp-0x48]
   140002223:	48 8b 45 d8          	mov    rax,QWORD PTR [rbp-0x28]
   140002227:	48 01 d0             	add    rax,rdx
   14000222a:	48 89 45 b8          	mov    QWORD PTR [rbp-0x48],rax
   14000222e:	48 8b 45 f0          	mov    rax,QWORD PTR [rbp-0x10]
   140002232:	8b 40 08             	mov    eax,DWORD PTR [rax+0x8]
   140002235:	25 ff 00 00 00       	and    eax,0xff
   14000223a:	89 45 d4             	mov    DWORD PTR [rbp-0x2c],eax
   14000223d:	83 7d d4 3f          	cmp    DWORD PTR [rbp-0x2c],0x3f
   140002241:	77 70                	ja     1400022b3 <do_pseudo_reloc+0x2e5>
   140002243:	8b 45 d4             	mov    eax,DWORD PTR [rbp-0x2c]
   140002246:	ba 01 00 00 00       	mov    edx,0x1
   14000224b:	89 c1                	mov    ecx,eax
   14000224d:	48 d3 e2             	shl    rdx,cl
   140002250:	48 89 d0             	mov    rax,rdx
   140002253:	48 83 e8 01          	sub    rax,0x1
   140002257:	48 89 45 c8          	mov    QWORD PTR [rbp-0x38],rax
   14000225b:	8b 45 d4             	mov    eax,DWORD PTR [rbp-0x2c]
   14000225e:	83 e8 01             	sub    eax,0x1
   140002261:	48 c7 c2 ff ff ff ff 	mov    rdx,0xffffffffffffffff
   140002268:	89 c1                	mov    ecx,eax
   14000226a:	48 d3 e2             	shl    rdx,cl
   14000226d:	48 89 d0             	mov    rax,rdx
   140002270:	48 89 45 c0          	mov    QWORD PTR [rbp-0x40],rax
   140002274:	48 8b 45 b8          	mov    rax,QWORD PTR [rbp-0x48]
   140002278:	48 39 45 c8          	cmp    QWORD PTR [rbp-0x38],rax
   14000227c:	7c 0a                	jl     140002288 <do_pseudo_reloc+0x2ba>
   14000227e:	48 8b 45 b8          	mov    rax,QWORD PTR [rbp-0x48]
   140002282:	48 39 45 c0          	cmp    QWORD PTR [rbp-0x40],rax
   140002286:	7e 2b                	jle    1400022b3 <do_pseudo_reloc+0x2e5>
   140002288:	48 8b 55 b8          	mov    rdx,QWORD PTR [rbp-0x48]
   14000228c:	4c 8b 45 d8          	mov    r8,QWORD PTR [rbp-0x28]
   140002290:	48 8b 4d e0          	mov    rcx,QWORD PTR [rbp-0x20]
   140002294:	8b 45 d4             	mov    eax,DWORD PTR [rbp-0x2c]
   140002297:	48 89 54 24 20       	mov    QWORD PTR [rsp+0x20],rdx
   14000229c:	4d 89 c1             	mov    r9,r8
   14000229f:	49 89 c8             	mov    r8,rcx
   1400022a2:	89 c2                	mov    edx,eax
   1400022a4:	48 8d 05 dd 60 00 00 	lea    rax,[rip+0x60dd]        # 140008388 <.rdata+0x108>
   1400022ab:	48 89 c1             	mov    rcx,rax
   1400022ae:	e8 ad f8 ff ff       	call   140001b60 <__report_error>
   1400022b3:	48 8b 45 f0          	mov    rax,QWORD PTR [rbp-0x10]
   1400022b7:	8b 40 08             	mov    eax,DWORD PTR [rax+0x8]
   1400022ba:	0f b6 c0             	movzx  eax,al
   1400022bd:	83 f8 40             	cmp    eax,0x40
   1400022c0:	74 63                	je     140002325 <do_pseudo_reloc+0x357>
   1400022c2:	83 f8 40             	cmp    eax,0x40
   1400022c5:	77 75                	ja     14000233c <do_pseudo_reloc+0x36e>
   1400022c7:	83 f8 20             	cmp    eax,0x20
   1400022ca:	74 41                	je     14000230d <do_pseudo_reloc+0x33f>
   1400022cc:	83 f8 20             	cmp    eax,0x20
   1400022cf:	77 6b                	ja     14000233c <do_pseudo_reloc+0x36e>
   1400022d1:	83 f8 08             	cmp    eax,0x8
   1400022d4:	74 07                	je     1400022dd <do_pseudo_reloc+0x30f>
   1400022d6:	83 f8 10             	cmp    eax,0x10
   1400022d9:	74 1a                	je     1400022f5 <do_pseudo_reloc+0x327>
   1400022db:	eb 5f                	jmp    14000233c <do_pseudo_reloc+0x36e>
   1400022dd:	48 8b 45 e0          	mov    rax,QWORD PTR [rbp-0x20]
   1400022e1:	48 8d 55 b8          	lea    rdx,[rbp-0x48]
   1400022e5:	41 b8 01 00 00 00    	mov    r8d,0x1
   1400022eb:	48 89 c1             	mov    rcx,rax
   1400022ee:	e8 94 fc ff ff       	call   140001f87 <__write_memory>
   1400022f3:	eb 47                	jmp    14000233c <do_pseudo_reloc+0x36e>
   1400022f5:	48 8b 45 e0          	mov    rax,QWORD PTR [rbp-0x20]
   1400022f9:	48 8d 55 b8          	lea    rdx,[rbp-0x48]
   1400022fd:	41 b8 02 00 00 00    	mov    r8d,0x2
   140002303:	48 89 c1             	mov    rcx,rax
   140002306:	e8 7c fc ff ff       	call   140001f87 <__write_memory>
   14000230b:	eb 2f                	jmp    14000233c <do_pseudo_reloc+0x36e>
   14000230d:	48 8b 45 e0          	mov    rax,QWORD PTR [rbp-0x20]
   140002311:	48 8d 55 b8          	lea    rdx,[rbp-0x48]
   140002315:	41 b8 04 00 00 00    	mov    r8d,0x4
   14000231b:	48 89 c1             	mov    rcx,rax
   14000231e:	e8 64 fc ff ff       	call   140001f87 <__write_memory>
   140002323:	eb 17                	jmp    14000233c <do_pseudo_reloc+0x36e>
   140002325:	48 8b 45 e0          	mov    rax,QWORD PTR [rbp-0x20]
   140002329:	48 8d 55 b8          	lea    rdx,[rbp-0x48]
   14000232d:	41 b8 08 00 00 00    	mov    r8d,0x8
   140002333:	48 89 c1             	mov    rcx,rax
   140002336:	e8 4c fc ff ff       	call   140001f87 <__write_memory>
   14000233b:	90                   	nop
   14000233c:	48 83 45 f0 0c       	add    QWORD PTR [rbp-0x10],0xc
   140002341:	48 8b 45 f0          	mov    rax,QWORD PTR [rbp-0x10]
   140002345:	48 3b 45 18          	cmp    rax,QWORD PTR [rbp+0x18]
   140002349:	0f 82 81 fd ff ff    	jb     1400020d0 <do_pseudo_reloc+0x102>
   14000234f:	eb 01                	jmp    140002352 <do_pseudo_reloc+0x384>
   140002351:	90                   	nop
   140002352:	48 83 ec 80          	sub    rsp,0xffffffffffffff80
   140002356:	5d                   	pop    rbp
   140002357:	c3                   	ret

0000000140002358 <_pei386_runtime_relocator>:
   140002358:	55                   	push   rbp
   140002359:	48 89 e5             	mov    rbp,rsp
   14000235c:	48 83 ec 30          	sub    rsp,0x30
   140002360:	8b 05 96 9d 00 00    	mov    eax,DWORD PTR [rip+0x9d96]        # 14000c0fc <was_init.0>
   140002366:	85 c0                	test   eax,eax
   140002368:	0f 85 88 00 00 00    	jne    1400023f6 <_pei386_runtime_relocator+0x9e>
   14000236e:	8b 05 88 9d 00 00    	mov    eax,DWORD PTR [rip+0x9d88]        # 14000c0fc <was_init.0>
   140002374:	83 c0 01             	add    eax,0x1
   140002377:	89 05 7f 9d 00 00    	mov    DWORD PTR [rip+0x9d7f],eax        # 14000c0fc <was_init.0>
   14000237d:	e8 79 08 00 00       	call   140002bfb <__mingw_GetSectionCount>
   140002382:	89 45 fc             	mov    DWORD PTR [rbp-0x4],eax
   140002385:	8b 45 fc             	mov    eax,DWORD PTR [rbp-0x4]
   140002388:	48 63 d0             	movsxd rdx,eax
   14000238b:	48 89 d0             	mov    rax,rdx
   14000238e:	48 c1 e0 02          	shl    rax,0x2
   140002392:	48 01 d0             	add    rax,rdx
   140002395:	48 c1 e0 03          	shl    rax,0x3
   140002399:	48 83 c0 0f          	add    rax,0xf
   14000239d:	48 c1 e8 04          	shr    rax,0x4
   1400023a1:	48 c1 e0 04          	shl    rax,0x4
   1400023a5:	e8 e6 0a 00 00       	call   140002e90 <___chkstk_ms>
   1400023aa:	48 29 c4             	sub    rsp,rax
   1400023ad:	48 8d 44 24 20       	lea    rax,[rsp+0x20]
   1400023b2:	48 83 c0 0f          	add    rax,0xf
   1400023b6:	48 c1 e8 04          	shr    rax,0x4
   1400023ba:	48 c1 e0 04          	shl    rax,0x4
   1400023be:	48 89 05 2b 9d 00 00 	mov    QWORD PTR [rip+0x9d2b],rax        # 14000c0f0 <the_secs>
   1400023c5:	c7 05 29 9d 00 00 00 	mov    DWORD PTR [rip+0x9d29],0x0        # 14000c0f8 <maxSections>
   1400023cc:	00 00 00 
   1400023cf:	4c 8b 05 aa 60 00 00 	mov    r8,QWORD PTR [rip+0x60aa]        # 140008480 <.refptr.__ImageBase>
   1400023d6:	48 8b 05 b3 60 00 00 	mov    rax,QWORD PTR [rip+0x60b3]        # 140008490 <.refptr.__RUNTIME_PSEUDO_RELOC_LIST_END__>
   1400023dd:	48 89 c2             	mov    rdx,rax
   1400023e0:	48 8b 05 b9 60 00 00 	mov    rax,QWORD PTR [rip+0x60b9]        # 1400084a0 <.refptr.__RUNTIME_PSEUDO_RELOC_LIST__>
   1400023e7:	48 89 c1             	mov    rcx,rax
   1400023ea:	e8 df fb ff ff       	call   140001fce <do_pseudo_reloc>
   1400023ef:	e8 bb fa ff ff       	call   140001eaf <restore_modified_sections>
   1400023f4:	eb 01                	jmp    1400023f7 <_pei386_runtime_relocator+0x9f>
   1400023f6:	90                   	nop
   1400023f7:	48 89 ec             	mov    rsp,rbp
   1400023fa:	5d                   	pop    rbp
   1400023fb:	c3                   	ret
   1400023fc:	90                   	nop
   1400023fd:	90                   	nop
   1400023fe:	90                   	nop
   1400023ff:	90                   	nop

0000000140002400 <__mingw_raise_matherr>:
   140002400:	55                   	push   rbp
   140002401:	48 89 e5             	mov    rbp,rsp
   140002404:	48 83 ec 50          	sub    rsp,0x50
   140002408:	89 4d 10             	mov    DWORD PTR [rbp+0x10],ecx
   14000240b:	48 89 55 18          	mov    QWORD PTR [rbp+0x18],rdx
   14000240f:	f2 0f 11 55 20       	movsd  QWORD PTR [rbp+0x20],xmm2
   140002414:	f2 0f 11 5d 28       	movsd  QWORD PTR [rbp+0x28],xmm3
   140002419:	48 8b 05 e0 9c 00 00 	mov    rax,QWORD PTR [rip+0x9ce0]        # 14000c100 <stUserMathErr>
   140002420:	48 85 c0             	test   rax,rax
   140002423:	74 3e                	je     140002463 <__mingw_raise_matherr+0x63>
   140002425:	8b 45 10             	mov    eax,DWORD PTR [rbp+0x10]
   140002428:	89 45 d0             	mov    DWORD PTR [rbp-0x30],eax
   14000242b:	48 8b 45 18          	mov    rax,QWORD PTR [rbp+0x18]
   14000242f:	48 89 45 d8          	mov    QWORD PTR [rbp-0x28],rax
   140002433:	f2 0f 10 45 20       	movsd  xmm0,QWORD PTR [rbp+0x20]
   140002438:	f2 0f 11 45 e0       	movsd  QWORD PTR [rbp-0x20],xmm0
   14000243d:	f2 0f 10 45 28       	movsd  xmm0,QWORD PTR [rbp+0x28]
   140002442:	f2 0f 11 45 e8       	movsd  QWORD PTR [rbp-0x18],xmm0
   140002447:	f2 0f 10 45 30       	movsd  xmm0,QWORD PTR [rbp+0x30]
   14000244c:	f2 0f 11 45 f0       	movsd  QWORD PTR [rbp-0x10],xmm0
   140002451:	48 8b 15 a8 9c 00 00 	mov    rdx,QWORD PTR [rip+0x9ca8]        # 14000c100 <stUserMathErr>
   140002458:	48 8d 45 d0          	lea    rax,[rbp-0x30]
   14000245c:	48 89 c1             	mov    rcx,rax
   14000245f:	ff d2                	call   rdx
   140002461:	eb 01                	jmp    140002464 <__mingw_raise_matherr+0x64>
   140002463:	90                   	nop
   140002464:	48 83 c4 50          	add    rsp,0x50
   140002468:	5d                   	pop    rbp
   140002469:	c3                   	ret

000000014000246a <__mingw_setusermatherr>:
   14000246a:	55                   	push   rbp
   14000246b:	48 89 e5             	mov    rbp,rsp
   14000246e:	48 83 ec 20          	sub    rsp,0x20
   140002472:	48 89 4d 10          	mov    QWORD PTR [rbp+0x10],rcx
   140002476:	48 8b 45 10          	mov    rax,QWORD PTR [rbp+0x10]
   14000247a:	48 89 05 7f 9c 00 00 	mov    QWORD PTR [rip+0x9c7f],rax        # 14000c100 <stUserMathErr>
   140002481:	48 8b 45 10          	mov    rax,QWORD PTR [rbp+0x10]
   140002485:	48 89 c1             	mov    rcx,rax
   140002488:	e8 63 0e 00 00       	call   1400032f0 <__setusermatherr>
   14000248d:	90                   	nop
   14000248e:	48 83 c4 20          	add    rsp,0x20
   140002492:	5d                   	pop    rbp
   140002493:	c3                   	ret
   140002494:	90                   	nop
   140002495:	90                   	nop
   140002496:	90                   	nop
   140002497:	90                   	nop
   140002498:	90                   	nop
   140002499:	90                   	nop
   14000249a:	90                   	nop
   14000249b:	90                   	nop
   14000249c:	90                   	nop
   14000249d:	90                   	nop
   14000249e:	90                   	nop
   14000249f:	90                   	nop

00000001400024a0 <_gnu_exception_handler>:
   1400024a0:	55                   	push   rbp
   1400024a1:	48 89 e5             	mov    rbp,rsp
   1400024a4:	48 83 ec 30          	sub    rsp,0x30
   1400024a8:	48 89 4d 10          	mov    QWORD PTR [rbp+0x10],rcx
   1400024ac:	c7 45 fc 00 00 00 00 	mov    DWORD PTR [rbp-0x4],0x0
   1400024b3:	c7 45 f8 00 00 00 00 	mov    DWORD PTR [rbp-0x8],0x0
   1400024ba:	48 8b 45 10          	mov    rax,QWORD PTR [rbp+0x10]
   1400024be:	48 8b 00             	mov    rax,QWORD PTR [rax]
   1400024c1:	8b 00                	mov    eax,DWORD PTR [rax]
   1400024c3:	25 ff ff ff 20       	and    eax,0x20ffffff
   1400024c8:	3d 43 43 47 20       	cmp    eax,0x20474343
   1400024cd:	75 1b                	jne    1400024ea <_gnu_exception_handler+0x4a>
   1400024cf:	48 8b 45 10          	mov    rax,QWORD PTR [rbp+0x10]
   1400024d3:	48 8b 00             	mov    rax,QWORD PTR [rax]
   1400024d6:	8b 40 04             	mov    eax,DWORD PTR [rax+0x4]
   1400024d9:	83 e0 01             	and    eax,0x1
   1400024dc:	85 c0                	test   eax,eax
   1400024de:	75 0a                	jne    1400024ea <_gnu_exception_handler+0x4a>
   1400024e0:	b8 ff ff ff ff       	mov    eax,0xffffffff
   1400024e5:	e9 d3 01 00 00       	jmp    1400026bd <_gnu_exception_handler+0x21d>
   1400024ea:	48 8b 45 10          	mov    rax,QWORD PTR [rbp+0x10]
   1400024ee:	48 8b 00             	mov    rax,QWORD PTR [rax]
   1400024f1:	8b 00                	mov    eax,DWORD PTR [rax]
   1400024f3:	3d 96 00 00 c0       	cmp    eax,0xc0000096
   1400024f8:	0f 87 8d 01 00 00    	ja     14000268b <_gnu_exception_handler+0x1eb>
   1400024fe:	3d 8c 00 00 c0       	cmp    eax,0xc000008c
   140002503:	73 43                	jae    140002548 <_gnu_exception_handler+0xa8>
   140002505:	3d 1d 00 00 c0       	cmp    eax,0xc000001d
   14000250a:	0f 84 bf 00 00 00    	je     1400025cf <_gnu_exception_handler+0x12f>
   140002510:	3d 1d 00 00 c0       	cmp    eax,0xc000001d
   140002515:	0f 87 70 01 00 00    	ja     14000268b <_gnu_exception_handler+0x1eb>
   14000251b:	3d 08 00 00 c0       	cmp    eax,0xc0000008
   140002520:	0f 84 5c 01 00 00    	je     140002682 <_gnu_exception_handler+0x1e2>
   140002526:	3d 08 00 00 c0       	cmp    eax,0xc0000008
   14000252b:	0f 87 5a 01 00 00    	ja     14000268b <_gnu_exception_handler+0x1eb>
   140002531:	3d 02 00 00 80       	cmp    eax,0x80000002
   140002536:	0f 84 46 01 00 00    	je     140002682 <_gnu_exception_handler+0x1e2>
   14000253c:	3d 05 00 00 c0       	cmp    eax,0xc0000005
   140002541:	74 35                	je     140002578 <_gnu_exception_handler+0xd8>
   140002543:	e9 43 01 00 00       	jmp    14000268b <_gnu_exception_handler+0x1eb>
   140002548:	05 74 ff ff 3f       	add    eax,0x3fffff74
   14000254d:	83 f8 0a             	cmp    eax,0xa
   140002550:	0f 87 35 01 00 00    	ja     14000268b <_gnu_exception_handler+0x1eb>
   140002556:	89 c0                	mov    eax,eax
   140002558:	48 8d 14 85 00 00 00 	lea    rdx,[rax*4+0x0]
   14000255f:	00 
   140002560:	48 8d 05 79 5e 00 00 	lea    rax,[rip+0x5e79]        # 1400083e0 <.rdata>
   140002567:	8b 04 02             	mov    eax,DWORD PTR [rdx+rax*1]
   14000256a:	48 98                	cdqe
   14000256c:	48 8d 15 6d 5e 00 00 	lea    rdx,[rip+0x5e6d]        # 1400083e0 <.rdata>
   140002573:	48 01 d0             	add    rax,rdx
   140002576:	ff e0                	jmp    rax
   140002578:	ba 00 00 00 00       	mov    edx,0x0
   14000257d:	b9 0b 00 00 00       	mov    ecx,0xb
   140002582:	e8 39 0d 00 00       	call   1400032c0 <signal>
   140002587:	48 89 45 f0          	mov    QWORD PTR [rbp-0x10],rax
   14000258b:	48 83 7d f0 01       	cmp    QWORD PTR [rbp-0x10],0x1
   140002590:	75 1b                	jne    1400025ad <_gnu_exception_handler+0x10d>
   140002592:	ba 01 00 00 00       	mov    edx,0x1
   140002597:	b9 0b 00 00 00       	mov    ecx,0xb
   14000259c:	e8 1f 0d 00 00       	call   1400032c0 <signal>
   1400025a1:	c7 45 fc ff ff ff ff 	mov    DWORD PTR [rbp-0x4],0xffffffff
   1400025a8:	e9 e1 00 00 00       	jmp    14000268e <_gnu_exception_handler+0x1ee>
   1400025ad:	48 83 7d f0 00       	cmp    QWORD PTR [rbp-0x10],0x0
   1400025b2:	0f 84 d6 00 00 00    	je     14000268e <_gnu_exception_handler+0x1ee>
   1400025b8:	48 8b 45 f0          	mov    rax,QWORD PTR [rbp-0x10]
   1400025bc:	b9 0b 00 00 00       	mov    ecx,0xb
   1400025c1:	ff d0                	call   rax
   1400025c3:	c7 45 fc ff ff ff ff 	mov    DWORD PTR [rbp-0x4],0xffffffff
   1400025ca:	e9 bf 00 00 00       	jmp    14000268e <_gnu_exception_handler+0x1ee>
   1400025cf:	ba 00 00 00 00       	mov    edx,0x0
   1400025d4:	b9 04 00 00 00       	mov    ecx,0x4
   1400025d9:	e8 e2 0c 00 00       	call   1400032c0 <signal>
   1400025de:	48 89 45 f0          	mov    QWORD PTR [rbp-0x10],rax
   1400025e2:	48 83 7d f0 01       	cmp    QWORD PTR [rbp-0x10],0x1
   1400025e7:	75 1b                	jne    140002604 <_gnu_exception_handler+0x164>
   1400025e9:	ba 01 00 00 00       	mov    edx,0x1
   1400025ee:	b9 04 00 00 00       	mov    ecx,0x4
   1400025f3:	e8 c8 0c 00 00       	call   1400032c0 <signal>
   1400025f8:	c7 45 fc ff ff ff ff 	mov    DWORD PTR [rbp-0x4],0xffffffff
   1400025ff:	e9 8d 00 00 00       	jmp    140002691 <_gnu_exception_handler+0x1f1>
   140002604:	48 83 7d f0 00       	cmp    QWORD PTR [rbp-0x10],0x0
   140002609:	0f 84 82 00 00 00    	je     140002691 <_gnu_exception_handler+0x1f1>
   14000260f:	48 8b 45 f0          	mov    rax,QWORD PTR [rbp-0x10]
   140002613:	b9 04 00 00 00       	mov    ecx,0x4
   140002618:	ff d0                	call   rax
   14000261a:	c7 45 fc ff ff ff ff 	mov    DWORD PTR [rbp-0x4],0xffffffff
   140002621:	eb 6e                	jmp    140002691 <_gnu_exception_handler+0x1f1>
   140002623:	c7 45 f8 01 00 00 00 	mov    DWORD PTR [rbp-0x8],0x1
   14000262a:	ba 00 00 00 00       	mov    edx,0x0
   14000262f:	b9 08 00 00 00       	mov    ecx,0x8
   140002634:	e8 87 0c 00 00       	call   1400032c0 <signal>
   140002639:	48 89 45 f0          	mov    QWORD PTR [rbp-0x10],rax
   14000263d:	48 83 7d f0 01       	cmp    QWORD PTR [rbp-0x10],0x1
   140002642:	75 23                	jne    140002667 <_gnu_exception_handler+0x1c7>
   140002644:	ba 01 00 00 00       	mov    edx,0x1
   140002649:	b9 08 00 00 00       	mov    ecx,0x8
   14000264e:	e8 6d 0c 00 00       	call   1400032c0 <signal>
   140002653:	83 7d f8 00          	cmp    DWORD PTR [rbp-0x8],0x0
   140002657:	74 05                	je     14000265e <_gnu_exception_handler+0x1be>
   140002659:	e8 f2 f4 ff ff       	call   140001b50 <_fpreset>
   14000265e:	c7 45 fc ff ff ff ff 	mov    DWORD PTR [rbp-0x4],0xffffffff
   140002665:	eb 2d                	jmp    140002694 <_gnu_exception_handler+0x1f4>
   140002667:	48 83 7d f0 00       	cmp    QWORD PTR [rbp-0x10],0x0
   14000266c:	74 26                	je     140002694 <_gnu_exception_handler+0x1f4>
   14000266e:	48 8b 45 f0          	mov    rax,QWORD PTR [rbp-0x10]
   140002672:	b9 08 00 00 00       	mov    ecx,0x8
   140002677:	ff d0                	call   rax
   140002679:	c7 45 fc ff ff ff ff 	mov    DWORD PTR [rbp-0x4],0xffffffff
   140002680:	eb 12                	jmp    140002694 <_gnu_exception_handler+0x1f4>
   140002682:	c7 45 fc ff ff ff ff 	mov    DWORD PTR [rbp-0x4],0xffffffff
   140002689:	eb 0a                	jmp    140002695 <_gnu_exception_handler+0x1f5>
   14000268b:	90                   	nop
   14000268c:	eb 07                	jmp    140002695 <_gnu_exception_handler+0x1f5>
   14000268e:	90                   	nop
   14000268f:	eb 04                	jmp    140002695 <_gnu_exception_handler+0x1f5>
   140002691:	90                   	nop
   140002692:	eb 01                	jmp    140002695 <_gnu_exception_handler+0x1f5>
   140002694:	90                   	nop
   140002695:	83 7d fc 00          	cmp    DWORD PTR [rbp-0x4],0x0
   140002699:	75 1f                	jne    1400026ba <_gnu_exception_handler+0x21a>
   14000269b:	48 8b 05 7e 9a 00 00 	mov    rax,QWORD PTR [rip+0x9a7e]        # 14000c120 <__mingw_oldexcpt_handler>
   1400026a2:	48 85 c0             	test   rax,rax
   1400026a5:	74 13                	je     1400026ba <_gnu_exception_handler+0x21a>
   1400026a7:	48 8b 15 72 9a 00 00 	mov    rdx,QWORD PTR [rip+0x9a72]        # 14000c120 <__mingw_oldexcpt_handler>
   1400026ae:	48 8b 45 10          	mov    rax,QWORD PTR [rbp+0x10]
   1400026b2:	48 89 c1             	mov    rcx,rax
   1400026b5:	ff d2                	call   rdx
   1400026b7:	89 45 fc             	mov    DWORD PTR [rbp-0x4],eax
   1400026ba:	8b 45 fc             	mov    eax,DWORD PTR [rbp-0x4]
   1400026bd:	48 83 c4 30          	add    rsp,0x30
   1400026c1:	5d                   	pop    rbp
   1400026c2:	c3                   	ret
   1400026c3:	90                   	nop
   1400026c4:	90                   	nop
   1400026c5:	90                   	nop
   1400026c6:	90                   	nop
   1400026c7:	90                   	nop
   1400026c8:	90                   	nop
   1400026c9:	90                   	nop
   1400026ca:	90                   	nop
   1400026cb:	90                   	nop
   1400026cc:	90                   	nop
   1400026cd:	90                   	nop
   1400026ce:	90                   	nop
   1400026cf:	90                   	nop

00000001400026d0 <___w64_mingwthr_add_key_dtor>:
   1400026d0:	55                   	push   rbp
   1400026d1:	48 89 e5             	mov    rbp,rsp
   1400026d4:	48 83 ec 30          	sub    rsp,0x30
   1400026d8:	89 4d 10             	mov    DWORD PTR [rbp+0x10],ecx
   1400026db:	48 89 55 18          	mov    QWORD PTR [rbp+0x18],rdx
   1400026df:	8b 05 83 9a 00 00    	mov    eax,DWORD PTR [rip+0x9a83]        # 14000c168 <__mingwthr_cs_init>
   1400026e5:	85 c0                	test   eax,eax
   1400026e7:	75 07                	jne    1400026f0 <___w64_mingwthr_add_key_dtor+0x20>
   1400026e9:	b8 00 00 00 00       	mov    eax,0x0
   1400026ee:	eb 7b                	jmp    14000276b <___w64_mingwthr_add_key_dtor+0x9b>
   1400026f0:	ba 18 00 00 00       	mov    edx,0x18
   1400026f5:	b9 01 00 00 00       	mov    ecx,0x1
   1400026fa:	e8 09 0c 00 00       	call   140003308 <calloc>
   1400026ff:	48 89 45 f8          	mov    QWORD PTR [rbp-0x8],rax
   140002703:	48 83 7d f8 00       	cmp    QWORD PTR [rbp-0x8],0x0
   140002708:	75 07                	jne    140002711 <___w64_mingwthr_add_key_dtor+0x41>
   14000270a:	b8 ff ff ff ff       	mov    eax,0xffffffff
   14000270f:	eb 5a                	jmp    14000276b <___w64_mingwthr_add_key_dtor+0x9b>
   140002711:	48 8b 45 f8          	mov    rax,QWORD PTR [rbp-0x8]
   140002715:	8b 55 10             	mov    edx,DWORD PTR [rbp+0x10]
   140002718:	89 10                	mov    DWORD PTR [rax],edx
   14000271a:	48 8b 45 f8          	mov    rax,QWORD PTR [rbp-0x8]
   14000271e:	48 8b 55 18          	mov    rdx,QWORD PTR [rbp+0x18]
   140002722:	48 89 50 08          	mov    QWORD PTR [rax+0x8],rdx
   140002726:	48 8d 05 13 9a 00 00 	lea    rax,[rip+0x9a13]        # 14000c140 <__mingwthr_cs>
   14000272d:	48 89 c1             	mov    rcx,rax
   140002730:	48 8b 05 c9 ac 00 00 	mov    rax,QWORD PTR [rip+0xacc9]        # 14000d400 <__imp_EnterCriticalSection>
   140002737:	ff d0                	call   rax
   140002739:	48 8b 15 30 9a 00 00 	mov    rdx,QWORD PTR [rip+0x9a30]        # 14000c170 <key_dtor_list>
   140002740:	48 8b 45 f8          	mov    rax,QWORD PTR [rbp-0x8]
   140002744:	48 89 50 10          	mov    QWORD PTR [rax+0x10],rdx
   140002748:	48 8b 45 f8          	mov    rax,QWORD PTR [rbp-0x8]
   14000274c:	48 89 05 1d 9a 00 00 	mov    QWORD PTR [rip+0x9a1d],rax        # 14000c170 <key_dtor_list>
   140002753:	48 8d 05 e6 99 00 00 	lea    rax,[rip+0x99e6]        # 14000c140 <__mingwthr_cs>
   14000275a:	48 89 c1             	mov    rcx,rax
   14000275d:	48 8b 05 cc ac 00 00 	mov    rax,QWORD PTR [rip+0xaccc]        # 14000d430 <__imp_LeaveCriticalSection>
   140002764:	ff d0                	call   rax
   140002766:	b8 00 00 00 00       	mov    eax,0x0
   14000276b:	48 83 c4 30          	add    rsp,0x30
   14000276f:	5d                   	pop    rbp
   140002770:	c3                   	ret

0000000140002771 <___w64_mingwthr_remove_key_dtor>:
   140002771:	55                   	push   rbp
   140002772:	48 89 e5             	mov    rbp,rsp
   140002775:	48 83 ec 30          	sub    rsp,0x30
   140002779:	89 4d 10             	mov    DWORD PTR [rbp+0x10],ecx
   14000277c:	8b 05 e6 99 00 00    	mov    eax,DWORD PTR [rip+0x99e6]        # 14000c168 <__mingwthr_cs_init>
   140002782:	85 c0                	test   eax,eax
   140002784:	75 0a                	jne    140002790 <___w64_mingwthr_remove_key_dtor+0x1f>
   140002786:	b8 00 00 00 00       	mov    eax,0x0
   14000278b:	e9 9c 00 00 00       	jmp    14000282c <___w64_mingwthr_remove_key_dtor+0xbb>
   140002790:	48 8d 05 a9 99 00 00 	lea    rax,[rip+0x99a9]        # 14000c140 <__mingwthr_cs>
   140002797:	48 89 c1             	mov    rcx,rax
   14000279a:	48 8b 05 5f ac 00 00 	mov    rax,QWORD PTR [rip+0xac5f]        # 14000d400 <__imp_EnterCriticalSection>
   1400027a1:	ff d0                	call   rax
   1400027a3:	48 c7 45 f8 00 00 00 	mov    QWORD PTR [rbp-0x8],0x0
   1400027aa:	00 
   1400027ab:	48 8b 05 be 99 00 00 	mov    rax,QWORD PTR [rip+0x99be]        # 14000c170 <key_dtor_list>
   1400027b2:	48 89 45 f0          	mov    QWORD PTR [rbp-0x10],rax
   1400027b6:	eb 55                	jmp    14000280d <___w64_mingwthr_remove_key_dtor+0x9c>
   1400027b8:	48 8b 45 f0          	mov    rax,QWORD PTR [rbp-0x10]
   1400027bc:	8b 00                	mov    eax,DWORD PTR [rax]
   1400027be:	39 45 10             	cmp    DWORD PTR [rbp+0x10],eax
   1400027c1:	75 36                	jne    1400027f9 <___w64_mingwthr_remove_key_dtor+0x88>
   1400027c3:	48 83 7d f8 00       	cmp    QWORD PTR [rbp-0x8],0x0
   1400027c8:	75 11                	jne    1400027db <___w64_mingwthr_remove_key_dtor+0x6a>
   1400027ca:	48 8b 45 f0          	mov    rax,QWORD PTR [rbp-0x10]
   1400027ce:	48 8b 40 10          	mov    rax,QWORD PTR [rax+0x10]
   1400027d2:	48 89 05 97 99 00 00 	mov    QWORD PTR [rip+0x9997],rax        # 14000c170 <key_dtor_list>
   1400027d9:	eb 10                	jmp    1400027eb <___w64_mingwthr_remove_key_dtor+0x7a>
   1400027db:	48 8b 45 f0          	mov    rax,QWORD PTR [rbp-0x10]
   1400027df:	48 8b 50 10          	mov    rdx,QWORD PTR [rax+0x10]
   1400027e3:	48 8b 45 f8          	mov    rax,QWORD PTR [rbp-0x8]
   1400027e7:	48 89 50 10          	mov    QWORD PTR [rax+0x10],rdx
   1400027eb:	48 8b 45 f0          	mov    rax,QWORD PTR [rbp-0x10]
   1400027ef:	48 89 c1             	mov    rcx,rax
   1400027f2:	e8 19 0b 00 00       	call   140003310 <free>
   1400027f7:	eb 1b                	jmp    140002814 <___w64_mingwthr_remove_key_dtor+0xa3>
   1400027f9:	48 8b 45 f0          	mov    rax,QWORD PTR [rbp-0x10]
   1400027fd:	48 89 45 f8          	mov    QWORD PTR [rbp-0x8],rax
   140002801:	48 8b 45 f0          	mov    rax,QWORD PTR [rbp-0x10]
   140002805:	48 8b 40 10          	mov    rax,QWORD PTR [rax+0x10]
   140002809:	48 89 45 f0          	mov    QWORD PTR [rbp-0x10],rax
   14000280d:	48 83 7d f0 00       	cmp    QWORD PTR [rbp-0x10],0x0
   140002812:	75 a4                	jne    1400027b8 <___w64_mingwthr_remove_key_dtor+0x47>
   140002814:	48 8d 05 25 99 00 00 	lea    rax,[rip+0x9925]        # 14000c140 <__mingwthr_cs>
   14000281b:	48 89 c1             	mov    rcx,rax
   14000281e:	48 8b 05 0b ac 00 00 	mov    rax,QWORD PTR [rip+0xac0b]        # 14000d430 <__imp_LeaveCriticalSection>
   140002825:	ff d0                	call   rax
   140002827:	b8 00 00 00 00       	mov    eax,0x0
   14000282c:	48 83 c4 30          	add    rsp,0x30
   140002830:	5d                   	pop    rbp
   140002831:	c3                   	ret

0000000140002832 <__mingwthr_run_key_dtors>:
   140002832:	55                   	push   rbp
   140002833:	48 89 e5             	mov    rbp,rsp
   140002836:	48 83 ec 30          	sub    rsp,0x30
   14000283a:	8b 05 28 99 00 00    	mov    eax,DWORD PTR [rip+0x9928]        # 14000c168 <__mingwthr_cs_init>
   140002840:	85 c0                	test   eax,eax
   140002842:	0f 84 82 00 00 00    	je     1400028ca <__mingwthr_run_key_dtors+0x98>
   140002848:	48 8d 05 f1 98 00 00 	lea    rax,[rip+0x98f1]        # 14000c140 <__mingwthr_cs>
   14000284f:	48 89 c1             	mov    rcx,rax
   140002852:	48 8b 05 a7 ab 00 00 	mov    rax,QWORD PTR [rip+0xaba7]        # 14000d400 <__imp_EnterCriticalSection>
   140002859:	ff d0                	call   rax
   14000285b:	48 8b 05 0e 99 00 00 	mov    rax,QWORD PTR [rip+0x990e]        # 14000c170 <key_dtor_list>
   140002862:	48 89 45 f8          	mov    QWORD PTR [rbp-0x8],rax
   140002866:	eb 46                	jmp    1400028ae <__mingwthr_run_key_dtors+0x7c>
   140002868:	48 8b 45 f8          	mov    rax,QWORD PTR [rbp-0x8]
   14000286c:	8b 00                	mov    eax,DWORD PTR [rax]
   14000286e:	89 c1                	mov    ecx,eax
   140002870:	48 8b 05 d9 ab 00 00 	mov    rax,QWORD PTR [rip+0xabd9]        # 14000d450 <__imp_TlsGetValue>
   140002877:	ff d0                	call   rax
   140002879:	48 89 45 f0          	mov    QWORD PTR [rbp-0x10],rax
   14000287d:	48 8b 05 8c ab 00 00 	mov    rax,QWORD PTR [rip+0xab8c]        # 14000d410 <__imp_GetLastError>
   140002884:	ff d0                	call   rax
   140002886:	85 c0                	test   eax,eax
   140002888:	75 18                	jne    1400028a2 <__mingwthr_run_key_dtors+0x70>
   14000288a:	48 83 7d f0 00       	cmp    QWORD PTR [rbp-0x10],0x0
   14000288f:	74 11                	je     1400028a2 <__mingwthr_run_key_dtors+0x70>
   140002891:	48 8b 45 f8          	mov    rax,QWORD PTR [rbp-0x8]
   140002895:	48 8b 50 08          	mov    rdx,QWORD PTR [rax+0x8]
   140002899:	48 8b 45 f0          	mov    rax,QWORD PTR [rbp-0x10]
   14000289d:	48 89 c1             	mov    rcx,rax
   1400028a0:	ff d2                	call   rdx
   1400028a2:	48 8b 45 f8          	mov    rax,QWORD PTR [rbp-0x8]
   1400028a6:	48 8b 40 10          	mov    rax,QWORD PTR [rax+0x10]
   1400028aa:	48 89 45 f8          	mov    QWORD PTR [rbp-0x8],rax
   1400028ae:	48 83 7d f8 00       	cmp    QWORD PTR [rbp-0x8],0x0
   1400028b3:	75 b3                	jne    140002868 <__mingwthr_run_key_dtors+0x36>
   1400028b5:	48 8d 05 84 98 00 00 	lea    rax,[rip+0x9884]        # 14000c140 <__mingwthr_cs>
   1400028bc:	48 89 c1             	mov    rcx,rax
   1400028bf:	48 8b 05 6a ab 00 00 	mov    rax,QWORD PTR [rip+0xab6a]        # 14000d430 <__imp_LeaveCriticalSection>
   1400028c6:	ff d0                	call   rax
   1400028c8:	eb 01                	jmp    1400028cb <__mingwthr_run_key_dtors+0x99>
   1400028ca:	90                   	nop
   1400028cb:	48 83 c4 30          	add    rsp,0x30
   1400028cf:	5d                   	pop    rbp
   1400028d0:	c3                   	ret

00000001400028d1 <__mingw_TLScallback>:
   1400028d1:	55                   	push   rbp
   1400028d2:	48 89 e5             	mov    rbp,rsp
   1400028d5:	48 83 ec 30          	sub    rsp,0x30
   1400028d9:	48 89 4d 10          	mov    QWORD PTR [rbp+0x10],rcx
   1400028dd:	89 55 18             	mov    DWORD PTR [rbp+0x18],edx
   1400028e0:	4c 89 45 20          	mov    QWORD PTR [rbp+0x20],r8
   1400028e4:	83 7d 18 03          	cmp    DWORD PTR [rbp+0x18],0x3
   1400028e8:	0f 84 cc 00 00 00    	je     1400029ba <__mingw_TLScallback+0xe9>
   1400028ee:	83 7d 18 03          	cmp    DWORD PTR [rbp+0x18],0x3
   1400028f2:	0f 87 ca 00 00 00    	ja     1400029c2 <__mingw_TLScallback+0xf1>
   1400028f8:	83 7d 18 02          	cmp    DWORD PTR [rbp+0x18],0x2
   1400028fc:	0f 84 b1 00 00 00    	je     1400029b3 <__mingw_TLScallback+0xe2>
   140002902:	83 7d 18 02          	cmp    DWORD PTR [rbp+0x18],0x2
   140002906:	0f 87 b6 00 00 00    	ja     1400029c2 <__mingw_TLScallback+0xf1>
   14000290c:	83 7d 18 00          	cmp    DWORD PTR [rbp+0x18],0x0
   140002910:	74 33                	je     140002945 <__mingw_TLScallback+0x74>
   140002912:	83 7d 18 01          	cmp    DWORD PTR [rbp+0x18],0x1
   140002916:	0f 85 a6 00 00 00    	jne    1400029c2 <__mingw_TLScallback+0xf1>
   14000291c:	8b 05 46 98 00 00    	mov    eax,DWORD PTR [rip+0x9846]        # 14000c168 <__mingwthr_cs_init>
   140002922:	85 c0                	test   eax,eax
   140002924:	75 13                	jne    140002939 <__mingw_TLScallback+0x68>
   140002926:	48 8d 05 13 98 00 00 	lea    rax,[rip+0x9813]        # 14000c140 <__mingwthr_cs>
   14000292d:	48 89 c1             	mov    rcx,rax
   140002930:	48 8b 05 f1 aa 00 00 	mov    rax,QWORD PTR [rip+0xaaf1]        # 14000d428 <__imp_InitializeCriticalSection>
   140002937:	ff d0                	call   rax
   140002939:	c7 05 25 98 00 00 01 	mov    DWORD PTR [rip+0x9825],0x1        # 14000c168 <__mingwthr_cs_init>
   140002940:	00 00 00 
   140002943:	eb 7d                	jmp    1400029c2 <__mingw_TLScallback+0xf1>
   140002945:	e8 e8 fe ff ff       	call   140002832 <__mingwthr_run_key_dtors>
   14000294a:	8b 05 18 98 00 00    	mov    eax,DWORD PTR [rip+0x9818]        # 14000c168 <__mingwthr_cs_init>
   140002950:	83 f8 01             	cmp    eax,0x1
   140002953:	75 6c                	jne    1400029c1 <__mingw_TLScallback+0xf0>
   140002955:	48 8b 05 14 98 00 00 	mov    rax,QWORD PTR [rip+0x9814]        # 14000c170 <key_dtor_list>
   14000295c:	48 89 45 f8          	mov    QWORD PTR [rbp-0x8],rax
   140002960:	eb 20                	jmp    140002982 <__mingw_TLScallback+0xb1>
   140002962:	48 8b 45 f8          	mov    rax,QWORD PTR [rbp-0x8]
   140002966:	48 8b 40 10          	mov    rax,QWORD PTR [rax+0x10]
   14000296a:	48 89 45 f0          	mov    QWORD PTR [rbp-0x10],rax
   14000296e:	48 8b 45 f8          	mov    rax,QWORD PTR [rbp-0x8]
   140002972:	48 89 c1             	mov    rcx,rax
   140002975:	e8 96 09 00 00       	call   140003310 <free>
   14000297a:	48 8b 45 f0          	mov    rax,QWORD PTR [rbp-0x10]
   14000297e:	48 89 45 f8          	mov    QWORD PTR [rbp-0x8],rax
   140002982:	48 83 7d f8 00       	cmp    QWORD PTR [rbp-0x8],0x0
   140002987:	75 d9                	jne    140002962 <__mingw_TLScallback+0x91>
   140002989:	48 c7 05 dc 97 00 00 	mov    QWORD PTR [rip+0x97dc],0x0        # 14000c170 <key_dtor_list>
   140002990:	00 00 00 00 
   140002994:	c7 05 ca 97 00 00 00 	mov    DWORD PTR [rip+0x97ca],0x0        # 14000c168 <__mingwthr_cs_init>
   14000299b:	00 00 00 
   14000299e:	48 8d 05 9b 97 00 00 	lea    rax,[rip+0x979b]        # 14000c140 <__mingwthr_cs>
   1400029a5:	48 89 c1             	mov    rcx,rax
   1400029a8:	48 8b 05 49 aa 00 00 	mov    rax,QWORD PTR [rip+0xaa49]        # 14000d3f8 <__imp_DeleteCriticalSection>
   1400029af:	ff d0                	call   rax
   1400029b1:	eb 0e                	jmp    1400029c1 <__mingw_TLScallback+0xf0>
   1400029b3:	e8 98 f1 ff ff       	call   140001b50 <_fpreset>
   1400029b8:	eb 08                	jmp    1400029c2 <__mingw_TLScallback+0xf1>
   1400029ba:	e8 73 fe ff ff       	call   140002832 <__mingwthr_run_key_dtors>
   1400029bf:	eb 01                	jmp    1400029c2 <__mingw_TLScallback+0xf1>
   1400029c1:	90                   	nop
   1400029c2:	b8 01 00 00 00       	mov    eax,0x1
   1400029c7:	48 83 c4 30          	add    rsp,0x30
   1400029cb:	5d                   	pop    rbp
   1400029cc:	c3                   	ret
   1400029cd:	90                   	nop
   1400029ce:	90                   	nop
   1400029cf:	90                   	nop

00000001400029d0 <_ValidateImageBase>:
   1400029d0:	55                   	push   rbp
   1400029d1:	48 89 e5             	mov    rbp,rsp
   1400029d4:	48 83 ec 20          	sub    rsp,0x20
   1400029d8:	48 89 4d 10          	mov    QWORD PTR [rbp+0x10],rcx
   1400029dc:	48 8b 45 10          	mov    rax,QWORD PTR [rbp+0x10]
   1400029e0:	48 89 45 f8          	mov    QWORD PTR [rbp-0x8],rax
   1400029e4:	48 8b 45 f8          	mov    rax,QWORD PTR [rbp-0x8]
   1400029e8:	0f b7 00             	movzx  eax,WORD PTR [rax]
   1400029eb:	66 3d 4d 5a          	cmp    ax,0x5a4d
   1400029ef:	74 07                	je     1400029f8 <_ValidateImageBase+0x28>
   1400029f1:	b8 00 00 00 00       	mov    eax,0x0
   1400029f6:	eb 4e                	jmp    140002a46 <_ValidateImageBase+0x76>
   1400029f8:	48 8b 45 f8          	mov    rax,QWORD PTR [rbp-0x8]
   1400029fc:	8b 40 3c             	mov    eax,DWORD PTR [rax+0x3c]
   1400029ff:	48 63 d0             	movsxd rdx,eax
   140002a02:	48 8b 45 f8          	mov    rax,QWORD PTR [rbp-0x8]
   140002a06:	48 01 d0             	add    rax,rdx
   140002a09:	48 89 45 f0          	mov    QWORD PTR [rbp-0x10],rax
   140002a0d:	48 8b 45 f0          	mov    rax,QWORD PTR [rbp-0x10]
   140002a11:	8b 00                	mov    eax,DWORD PTR [rax]
   140002a13:	3d 50 45 00 00       	cmp    eax,0x4550
   140002a18:	74 07                	je     140002a21 <_ValidateImageBase+0x51>
   140002a1a:	b8 00 00 00 00       	mov    eax,0x0
   140002a1f:	eb 25                	jmp    140002a46 <_ValidateImageBase+0x76>
   140002a21:	48 8b 45 f0          	mov    rax,QWORD PTR [rbp-0x10]
   140002a25:	48 83 c0 18          	add    rax,0x18
   140002a29:	48 89 45 e8          	mov    QWORD PTR [rbp-0x18],rax
   140002a2d:	48 8b 45 e8          	mov    rax,QWORD PTR [rbp-0x18]
   140002a31:	0f b7 00             	movzx  eax,WORD PTR [rax]
   140002a34:	66 3d 0b 02          	cmp    ax,0x20b
   140002a38:	74 07                	je     140002a41 <_ValidateImageBase+0x71>
   140002a3a:	b8 00 00 00 00       	mov    eax,0x0
   140002a3f:	eb 05                	jmp    140002a46 <_ValidateImageBase+0x76>
   140002a41:	b8 01 00 00 00       	mov    eax,0x1
   140002a46:	48 83 c4 20          	add    rsp,0x20
   140002a4a:	5d                   	pop    rbp
   140002a4b:	c3                   	ret

0000000140002a4c <_FindPESection>:
   140002a4c:	55                   	push   rbp
   140002a4d:	48 89 e5             	mov    rbp,rsp
   140002a50:	48 83 ec 20          	sub    rsp,0x20
   140002a54:	48 89 4d 10          	mov    QWORD PTR [rbp+0x10],rcx
   140002a58:	48 89 55 18          	mov    QWORD PTR [rbp+0x18],rdx
   140002a5c:	48 8b 45 10          	mov    rax,QWORD PTR [rbp+0x10]
   140002a60:	8b 40 3c             	mov    eax,DWORD PTR [rax+0x3c]
   140002a63:	48 63 d0             	movsxd rdx,eax
   140002a66:	48 8b 45 10          	mov    rax,QWORD PTR [rbp+0x10]
   140002a6a:	48 01 d0             	add    rax,rdx
   140002a6d:	48 89 45 e8          	mov    QWORD PTR [rbp-0x18],rax
   140002a71:	c7 45 f4 00 00 00 00 	mov    DWORD PTR [rbp-0xc],0x0
   140002a78:	48 8b 45 e8          	mov    rax,QWORD PTR [rbp-0x18]
   140002a7c:	0f b7 40 14          	movzx  eax,WORD PTR [rax+0x14]
   140002a80:	0f b7 d0             	movzx  edx,ax
   140002a83:	48 8b 45 e8          	mov    rax,QWORD PTR [rbp-0x18]
   140002a87:	48 01 d0             	add    rax,rdx
   140002a8a:	48 83 c0 18          	add    rax,0x18
   140002a8e:	48 89 45 f8          	mov    QWORD PTR [rbp-0x8],rax
   140002a92:	eb 36                	jmp    140002aca <_FindPESection+0x7e>
   140002a94:	48 8b 45 f8          	mov    rax,QWORD PTR [rbp-0x8]
   140002a98:	8b 40 0c             	mov    eax,DWORD PTR [rax+0xc]
   140002a9b:	89 c0                	mov    eax,eax
   140002a9d:	48 39 45 18          	cmp    QWORD PTR [rbp+0x18],rax
   140002aa1:	72 1e                	jb     140002ac1 <_FindPESection+0x75>
   140002aa3:	48 8b 45 f8          	mov    rax,QWORD PTR [rbp-0x8]
   140002aa7:	8b 50 0c             	mov    edx,DWORD PTR [rax+0xc]
   140002aaa:	48 8b 45 f8          	mov    rax,QWORD PTR [rbp-0x8]
   140002aae:	8b 40 08             	mov    eax,DWORD PTR [rax+0x8]
   140002ab1:	01 d0                	add    eax,edx
   140002ab3:	89 c0                	mov    eax,eax
   140002ab5:	48 39 45 18          	cmp    QWORD PTR [rbp+0x18],rax
   140002ab9:	73 06                	jae    140002ac1 <_FindPESection+0x75>
   140002abb:	48 8b 45 f8          	mov    rax,QWORD PTR [rbp-0x8]
   140002abf:	eb 1e                	jmp    140002adf <_FindPESection+0x93>
   140002ac1:	83 45 f4 01          	add    DWORD PTR [rbp-0xc],0x1
   140002ac5:	48 83 45 f8 28       	add    QWORD PTR [rbp-0x8],0x28
   140002aca:	48 8b 45 e8          	mov    rax,QWORD PTR [rbp-0x18]
   140002ace:	0f b7 40 06          	movzx  eax,WORD PTR [rax+0x6]
   140002ad2:	0f b7 c0             	movzx  eax,ax
   140002ad5:	39 45 f4             	cmp    DWORD PTR [rbp-0xc],eax
   140002ad8:	72 ba                	jb     140002a94 <_FindPESection+0x48>
   140002ada:	b8 00 00 00 00       	mov    eax,0x0
   140002adf:	48 83 c4 20          	add    rsp,0x20
   140002ae3:	5d                   	pop    rbp
   140002ae4:	c3                   	ret

0000000140002ae5 <_FindPESectionByName>:
   140002ae5:	55                   	push   rbp
   140002ae6:	48 89 e5             	mov    rbp,rsp
   140002ae9:	48 83 ec 40          	sub    rsp,0x40
   140002aed:	48 89 4d 10          	mov    QWORD PTR [rbp+0x10],rcx
   140002af1:	48 8b 45 10          	mov    rax,QWORD PTR [rbp+0x10]
   140002af5:	48 89 c1             	mov    rcx,rax
   140002af8:	e8 fb 06 00 00       	call   1400031f8 <strlen>
   140002afd:	48 83 f8 08          	cmp    rax,0x8
   140002b01:	76 0a                	jbe    140002b0d <_FindPESectionByName+0x28>
   140002b03:	b8 00 00 00 00       	mov    eax,0x0
   140002b08:	e9 98 00 00 00       	jmp    140002ba5 <_FindPESectionByName+0xc0>
   140002b0d:	48 8b 05 6c 59 00 00 	mov    rax,QWORD PTR [rip+0x596c]        # 140008480 <.refptr.__ImageBase>
   140002b14:	48 89 45 e8          	mov    QWORD PTR [rbp-0x18],rax
   140002b18:	48 8b 45 e8          	mov    rax,QWORD PTR [rbp-0x18]
   140002b1c:	48 89 c1             	mov    rcx,rax
   140002b1f:	e8 ac fe ff ff       	call   1400029d0 <_ValidateImageBase>
   140002b24:	85 c0                	test   eax,eax
   140002b26:	75 07                	jne    140002b2f <_FindPESectionByName+0x4a>
   140002b28:	b8 00 00 00 00       	mov    eax,0x0
   140002b2d:	eb 76                	jmp    140002ba5 <_FindPESectionByName+0xc0>
   140002b2f:	48 8b 45 e8          	mov    rax,QWORD PTR [rbp-0x18]
   140002b33:	8b 40 3c             	mov    eax,DWORD PTR [rax+0x3c]
   140002b36:	48 63 d0             	movsxd rdx,eax
   140002b39:	48 8b 45 e8          	mov    rax,QWORD PTR [rbp-0x18]
   140002b3d:	48 01 d0             	add    rax,rdx
   140002b40:	48 89 45 e0          	mov    QWORD PTR [rbp-0x20],rax
   140002b44:	c7 45 f4 00 00 00 00 	mov    DWORD PTR [rbp-0xc],0x0
   140002b4b:	48 8b 45 e0          	mov    rax,QWORD PTR [rbp-0x20]
   140002b4f:	0f b7 40 14          	movzx  eax,WORD PTR [rax+0x14]
   140002b53:	0f b7 d0             	movzx  edx,ax
   140002b56:	48 8b 45 e0          	mov    rax,QWORD PTR [rbp-0x20]
   140002b5a:	48 01 d0             	add    rax,rdx
   140002b5d:	48 83 c0 18          	add    rax,0x18
   140002b61:	48 89 45 f8          	mov    QWORD PTR [rbp-0x8],rax
   140002b65:	eb 29                	jmp    140002b90 <_FindPESectionByName+0xab>
   140002b67:	48 8b 45 f8          	mov    rax,QWORD PTR [rbp-0x8]
   140002b6b:	48 8b 55 10          	mov    rdx,QWORD PTR [rbp+0x10]
   140002b6f:	41 b8 08 00 00 00    	mov    r8d,0x8
   140002b75:	48 89 c1             	mov    rcx,rax
   140002b78:	e8 83 06 00 00       	call   140003200 <strncmp>
   140002b7d:	85 c0                	test   eax,eax
   140002b7f:	75 06                	jne    140002b87 <_FindPESectionByName+0xa2>
   140002b81:	48 8b 45 f8          	mov    rax,QWORD PTR [rbp-0x8]
   140002b85:	eb 1e                	jmp    140002ba5 <_FindPESectionByName+0xc0>
   140002b87:	83 45 f4 01          	add    DWORD PTR [rbp-0xc],0x1
   140002b8b:	48 83 45 f8 28       	add    QWORD PTR [rbp-0x8],0x28
   140002b90:	48 8b 45 e0          	mov    rax,QWORD PTR [rbp-0x20]
   140002b94:	0f b7 40 06          	movzx  eax,WORD PTR [rax+0x6]
   140002b98:	0f b7 c0             	movzx  eax,ax
   140002b9b:	39 45 f4             	cmp    DWORD PTR [rbp-0xc],eax
   140002b9e:	72 c7                	jb     140002b67 <_FindPESectionByName+0x82>
   140002ba0:	b8 00 00 00 00       	mov    eax,0x0
   140002ba5:	48 83 c4 40          	add    rsp,0x40
   140002ba9:	5d                   	pop    rbp
   140002baa:	c3                   	ret

0000000140002bab <__mingw_GetSectionForAddress>:
   140002bab:	55                   	push   rbp
   140002bac:	48 89 e5             	mov    rbp,rsp
   140002baf:	48 83 ec 30          	sub    rsp,0x30
   140002bb3:	48 89 4d 10          	mov    QWORD PTR [rbp+0x10],rcx
   140002bb7:	48 8b 05 c2 58 00 00 	mov    rax,QWORD PTR [rip+0x58c2]        # 140008480 <.refptr.__ImageBase>
   140002bbe:	48 89 45 f8          	mov    QWORD PTR [rbp-0x8],rax
   140002bc2:	48 8b 45 f8          	mov    rax,QWORD PTR [rbp-0x8]
   140002bc6:	48 89 c1             	mov    rcx,rax
   140002bc9:	e8 02 fe ff ff       	call   1400029d0 <_ValidateImageBase>
   140002bce:	85 c0                	test   eax,eax
   140002bd0:	75 07                	jne    140002bd9 <__mingw_GetSectionForAddress+0x2e>
   140002bd2:	b8 00 00 00 00       	mov    eax,0x0
   140002bd7:	eb 1c                	jmp    140002bf5 <__mingw_GetSectionForAddress+0x4a>
   140002bd9:	48 8b 45 10          	mov    rax,QWORD PTR [rbp+0x10]
   140002bdd:	48 2b 45 f8          	sub    rax,QWORD PTR [rbp-0x8]
   140002be1:	48 89 45 f0          	mov    QWORD PTR [rbp-0x10],rax
   140002be5:	48 8b 55 f0          	mov    rdx,QWORD PTR [rbp-0x10]
   140002be9:	48 8b 45 f8          	mov    rax,QWORD PTR [rbp-0x8]
   140002bed:	48 89 c1             	mov    rcx,rax
   140002bf0:	e8 57 fe ff ff       	call   140002a4c <_FindPESection>
   140002bf5:	48 83 c4 30          	add    rsp,0x30
   140002bf9:	5d                   	pop    rbp
   140002bfa:	c3                   	ret

0000000140002bfb <__mingw_GetSectionCount>:
   140002bfb:	55                   	push   rbp
   140002bfc:	48 89 e5             	mov    rbp,rsp
   140002bff:	48 83 ec 30          	sub    rsp,0x30
   140002c03:	48 8b 05 76 58 00 00 	mov    rax,QWORD PTR [rip+0x5876]        # 140008480 <.refptr.__ImageBase>
   140002c0a:	48 89 45 f8          	mov    QWORD PTR [rbp-0x8],rax
   140002c0e:	48 8b 45 f8          	mov    rax,QWORD PTR [rbp-0x8]
   140002c12:	48 89 c1             	mov    rcx,rax
   140002c15:	e8 b6 fd ff ff       	call   1400029d0 <_ValidateImageBase>
   140002c1a:	85 c0                	test   eax,eax
   140002c1c:	75 07                	jne    140002c25 <__mingw_GetSectionCount+0x2a>
   140002c1e:	b8 00 00 00 00       	mov    eax,0x0
   140002c23:	eb 20                	jmp    140002c45 <__mingw_GetSectionCount+0x4a>
   140002c25:	48 8b 45 f8          	mov    rax,QWORD PTR [rbp-0x8]
   140002c29:	8b 40 3c             	mov    eax,DWORD PTR [rax+0x3c]
   140002c2c:	48 63 d0             	movsxd rdx,eax
   140002c2f:	48 8b 45 f8          	mov    rax,QWORD PTR [rbp-0x8]
   140002c33:	48 01 d0             	add    rax,rdx
   140002c36:	48 89 45 f0          	mov    QWORD PTR [rbp-0x10],rax
   140002c3a:	48 8b 45 f0          	mov    rax,QWORD PTR [rbp-0x10]
   140002c3e:	0f b7 40 06          	movzx  eax,WORD PTR [rax+0x6]
   140002c42:	0f b7 c0             	movzx  eax,ax
   140002c45:	48 83 c4 30          	add    rsp,0x30
   140002c49:	5d                   	pop    rbp
   140002c4a:	c3                   	ret

0000000140002c4b <_FindPESectionExec>:
   140002c4b:	55                   	push   rbp
   140002c4c:	48 89 e5             	mov    rbp,rsp
   140002c4f:	48 83 ec 40          	sub    rsp,0x40
   140002c53:	48 89 4d 10          	mov    QWORD PTR [rbp+0x10],rcx
   140002c57:	48 8b 05 22 58 00 00 	mov    rax,QWORD PTR [rip+0x5822]        # 140008480 <.refptr.__ImageBase>
   140002c5e:	48 89 45 e8          	mov    QWORD PTR [rbp-0x18],rax
   140002c62:	48 8b 45 e8          	mov    rax,QWORD PTR [rbp-0x18]
   140002c66:	48 89 c1             	mov    rcx,rax
   140002c69:	e8 62 fd ff ff       	call   1400029d0 <_ValidateImageBase>
   140002c6e:	85 c0                	test   eax,eax
   140002c70:	75 07                	jne    140002c79 <_FindPESectionExec+0x2e>
   140002c72:	b8 00 00 00 00       	mov    eax,0x0
   140002c77:	eb 78                	jmp    140002cf1 <_FindPESectionExec+0xa6>
   140002c79:	48 8b 45 e8          	mov    rax,QWORD PTR [rbp-0x18]
   140002c7d:	8b 40 3c             	mov    eax,DWORD PTR [rax+0x3c]
   140002c80:	48 63 d0             	movsxd rdx,eax
   140002c83:	48 8b 45 e8          	mov    rax,QWORD PTR [rbp-0x18]
   140002c87:	48 01 d0             	add    rax,rdx
   140002c8a:	48 89 45 e0          	mov    QWORD PTR [rbp-0x20],rax
   140002c8e:	c7 45 f4 00 00 00 00 	mov    DWORD PTR [rbp-0xc],0x0
   140002c95:	48 8b 45 e0          	mov    rax,QWORD PTR [rbp-0x20]
   140002c99:	0f b7 40 14          	movzx  eax,WORD PTR [rax+0x14]
   140002c9d:	0f b7 d0             	movzx  edx,ax
   140002ca0:	48 8b 45 e0          	mov    rax,QWORD PTR [rbp-0x20]
   140002ca4:	48 01 d0             	add    rax,rdx
   140002ca7:	48 83 c0 18          	add    rax,0x18
   140002cab:	48 89 45 f8          	mov    QWORD PTR [rbp-0x8],rax
   140002caf:	eb 2b                	jmp    140002cdc <_FindPESectionExec+0x91>
   140002cb1:	48 8b 45 f8          	mov    rax,QWORD PTR [rbp-0x8]
   140002cb5:	8b 40 24             	mov    eax,DWORD PTR [rax+0x24]
   140002cb8:	25 00 00 00 20       	and    eax,0x20000000
   140002cbd:	85 c0                	test   eax,eax
   140002cbf:	74 12                	je     140002cd3 <_FindPESectionExec+0x88>
   140002cc1:	48 83 7d 10 00       	cmp    QWORD PTR [rbp+0x10],0x0
   140002cc6:	75 06                	jne    140002cce <_FindPESectionExec+0x83>
   140002cc8:	48 8b 45 f8          	mov    rax,QWORD PTR [rbp-0x8]
   140002ccc:	eb 23                	jmp    140002cf1 <_FindPESectionExec+0xa6>
   140002cce:	48 83 6d 10 01       	sub    QWORD PTR [rbp+0x10],0x1
   140002cd3:	83 45 f4 01          	add    DWORD PTR [rbp-0xc],0x1
   140002cd7:	48 83 45 f8 28       	add    QWORD PTR [rbp-0x8],0x28
   140002cdc:	48 8b 45 e0          	mov    rax,QWORD PTR [rbp-0x20]
   140002ce0:	0f b7 40 06          	movzx  eax,WORD PTR [rax+0x6]
   140002ce4:	0f b7 c0             	movzx  eax,ax
   140002ce7:	39 45 f4             	cmp    DWORD PTR [rbp-0xc],eax
   140002cea:	72 c5                	jb     140002cb1 <_FindPESectionExec+0x66>
   140002cec:	b8 00 00 00 00       	mov    eax,0x0
   140002cf1:	48 83 c4 40          	add    rsp,0x40
   140002cf5:	5d                   	pop    rbp
   140002cf6:	c3                   	ret

0000000140002cf7 <_GetPEImageBase>:
   140002cf7:	55                   	push   rbp
   140002cf8:	48 89 e5             	mov    rbp,rsp
   140002cfb:	48 83 ec 30          	sub    rsp,0x30
   140002cff:	48 8b 05 7a 57 00 00 	mov    rax,QWORD PTR [rip+0x577a]        # 140008480 <.refptr.__ImageBase>
   140002d06:	48 89 45 f8          	mov    QWORD PTR [rbp-0x8],rax
   140002d0a:	48 8b 45 f8          	mov    rax,QWORD PTR [rbp-0x8]
   140002d0e:	48 89 c1             	mov    rcx,rax
   140002d11:	e8 ba fc ff ff       	call   1400029d0 <_ValidateImageBase>
   140002d16:	85 c0                	test   eax,eax
   140002d18:	75 07                	jne    140002d21 <_GetPEImageBase+0x2a>
   140002d1a:	b8 00 00 00 00       	mov    eax,0x0
   140002d1f:	eb 04                	jmp    140002d25 <_GetPEImageBase+0x2e>
   140002d21:	48 8b 45 f8          	mov    rax,QWORD PTR [rbp-0x8]
   140002d25:	48 83 c4 30          	add    rsp,0x30
   140002d29:	5d                   	pop    rbp
   140002d2a:	c3                   	ret

0000000140002d2b <_IsNonwritableInCurrentImage>:
   140002d2b:	55                   	push   rbp
   140002d2c:	48 89 e5             	mov    rbp,rsp
   140002d2f:	48 83 ec 40          	sub    rsp,0x40
   140002d33:	48 89 4d 10          	mov    QWORD PTR [rbp+0x10],rcx
   140002d37:	48 8b 05 42 57 00 00 	mov    rax,QWORD PTR [rip+0x5742]        # 140008480 <.refptr.__ImageBase>
   140002d3e:	48 89 45 f8          	mov    QWORD PTR [rbp-0x8],rax
   140002d42:	48 8b 45 f8          	mov    rax,QWORD PTR [rbp-0x8]
   140002d46:	48 89 c1             	mov    rcx,rax
   140002d49:	e8 82 fc ff ff       	call   1400029d0 <_ValidateImageBase>
   140002d4e:	85 c0                	test   eax,eax
   140002d50:	75 07                	jne    140002d59 <_IsNonwritableInCurrentImage+0x2e>
   140002d52:	b8 00 00 00 00       	mov    eax,0x0
   140002d57:	eb 3d                	jmp    140002d96 <_IsNonwritableInCurrentImage+0x6b>
   140002d59:	48 8b 45 10          	mov    rax,QWORD PTR [rbp+0x10]
   140002d5d:	48 2b 45 f8          	sub    rax,QWORD PTR [rbp-0x8]
   140002d61:	48 89 45 f0          	mov    QWORD PTR [rbp-0x10],rax
   140002d65:	48 8b 55 f0          	mov    rdx,QWORD PTR [rbp-0x10]
   140002d69:	48 8b 45 f8          	mov    rax,QWORD PTR [rbp-0x8]
   140002d6d:	48 89 c1             	mov    rcx,rax
   140002d70:	e8 d7 fc ff ff       	call   140002a4c <_FindPESection>
   140002d75:	48 89 45 e8          	mov    QWORD PTR [rbp-0x18],rax
   140002d79:	48 83 7d e8 00       	cmp    QWORD PTR [rbp-0x18],0x0
   140002d7e:	75 07                	jne    140002d87 <_IsNonwritableInCurrentImage+0x5c>
   140002d80:	b8 00 00 00 00       	mov    eax,0x0
   140002d85:	eb 0f                	jmp    140002d96 <_IsNonwritableInCurrentImage+0x6b>
   140002d87:	48 8b 45 e8          	mov    rax,QWORD PTR [rbp-0x18]
   140002d8b:	8b 40 24             	mov    eax,DWORD PTR [rax+0x24]
   140002d8e:	f7 d0                	not    eax
   140002d90:	c1 e8 1f             	shr    eax,0x1f
   140002d93:	0f b6 c0             	movzx  eax,al
   140002d96:	48 83 c4 40          	add    rsp,0x40
   140002d9a:	5d                   	pop    rbp
   140002d9b:	c3                   	ret

0000000140002d9c <__mingw_enum_import_library_names>:
   140002d9c:	55                   	push   rbp
   140002d9d:	48 89 e5             	mov    rbp,rsp
   140002da0:	48 83 ec 50          	sub    rsp,0x50
   140002da4:	89 4d 10             	mov    DWORD PTR [rbp+0x10],ecx
   140002da7:	48 8b 05 d2 56 00 00 	mov    rax,QWORD PTR [rip+0x56d2]        # 140008480 <.refptr.__ImageBase>
   140002dae:	48 89 45 f0          	mov    QWORD PTR [rbp-0x10],rax
   140002db2:	48 8b 45 f0          	mov    rax,QWORD PTR [rbp-0x10]
   140002db6:	48 89 c1             	mov    rcx,rax
   140002db9:	e8 12 fc ff ff       	call   1400029d0 <_ValidateImageBase>
   140002dbe:	85 c0                	test   eax,eax
   140002dc0:	75 0a                	jne    140002dcc <__mingw_enum_import_library_names+0x30>
   140002dc2:	b8 00 00 00 00       	mov    eax,0x0
   140002dc7:	e9 ab 00 00 00       	jmp    140002e77 <__mingw_enum_import_library_names+0xdb>
   140002dcc:	48 8b 45 f0          	mov    rax,QWORD PTR [rbp-0x10]
   140002dd0:	8b 40 3c             	mov    eax,DWORD PTR [rax+0x3c]
   140002dd3:	48 63 d0             	movsxd rdx,eax
   140002dd6:	48 8b 45 f0          	mov    rax,QWORD PTR [rbp-0x10]
   140002dda:	48 01 d0             	add    rax,rdx
   140002ddd:	48 89 45 e8          	mov    QWORD PTR [rbp-0x18],rax
   140002de1:	48 8b 45 e8          	mov    rax,QWORD PTR [rbp-0x18]
   140002de5:	8b 80 90 00 00 00    	mov    eax,DWORD PTR [rax+0x90]
   140002deb:	89 45 e4             	mov    DWORD PTR [rbp-0x1c],eax
   140002dee:	83 7d e4 00          	cmp    DWORD PTR [rbp-0x1c],0x0
   140002df2:	75 07                	jne    140002dfb <__mingw_enum_import_library_names+0x5f>
   140002df4:	b8 00 00 00 00       	mov    eax,0x0
   140002df9:	eb 7c                	jmp    140002e77 <__mingw_enum_import_library_names+0xdb>
   140002dfb:	8b 55 e4             	mov    edx,DWORD PTR [rbp-0x1c]
   140002dfe:	48 8b 45 f0          	mov    rax,QWORD PTR [rbp-0x10]
   140002e02:	48 89 c1             	mov    rcx,rax
   140002e05:	e8 42 fc ff ff       	call   140002a4c <_FindPESection>
   140002e0a:	48 89 45 d8          	mov    QWORD PTR [rbp-0x28],rax
   140002e0e:	48 83 7d d8 00       	cmp    QWORD PTR [rbp-0x28],0x0
   140002e13:	75 07                	jne    140002e1c <__mingw_enum_import_library_names+0x80>
   140002e15:	b8 00 00 00 00       	mov    eax,0x0
   140002e1a:	eb 5b                	jmp    140002e77 <__mingw_enum_import_library_names+0xdb>
   140002e1c:	8b 55 e4             	mov    edx,DWORD PTR [rbp-0x1c]
   140002e1f:	48 8b 45 f0          	mov    rax,QWORD PTR [rbp-0x10]
   140002e23:	48 01 d0             	add    rax,rdx
   140002e26:	48 89 45 f8          	mov    QWORD PTR [rbp-0x8],rax
   140002e2a:	48 83 7d f8 00       	cmp    QWORD PTR [rbp-0x8],0x0
   140002e2f:	75 07                	jne    140002e38 <__mingw_enum_import_library_names+0x9c>
   140002e31:	b8 00 00 00 00       	mov    eax,0x0
   140002e36:	eb 3f                	jmp    140002e77 <__mingw_enum_import_library_names+0xdb>
   140002e38:	48 8b 45 f8          	mov    rax,QWORD PTR [rbp-0x8]
   140002e3c:	8b 40 04             	mov    eax,DWORD PTR [rax+0x4]
   140002e3f:	85 c0                	test   eax,eax
   140002e41:	75 0b                	jne    140002e4e <__mingw_enum_import_library_names+0xb2>
   140002e43:	48 8b 45 f8          	mov    rax,QWORD PTR [rbp-0x8]
   140002e47:	8b 40 0c             	mov    eax,DWORD PTR [rax+0xc]
   140002e4a:	85 c0                	test   eax,eax
   140002e4c:	74 23                	je     140002e71 <__mingw_enum_import_library_names+0xd5>
   140002e4e:	83 7d 10 00          	cmp    DWORD PTR [rbp+0x10],0x0
   140002e52:	7f 12                	jg     140002e66 <__mingw_enum_import_library_names+0xca>
   140002e54:	48 8b 45 f8          	mov    rax,QWORD PTR [rbp-0x8]
   140002e58:	8b 40 0c             	mov    eax,DWORD PTR [rax+0xc]
   140002e5b:	89 c2                	mov    edx,eax
   140002e5d:	48 8b 45 f0          	mov    rax,QWORD PTR [rbp-0x10]
   140002e61:	48 01 d0             	add    rax,rdx
   140002e64:	eb 11                	jmp    140002e77 <__mingw_enum_import_library_names+0xdb>
   140002e66:	83 6d 10 01          	sub    DWORD PTR [rbp+0x10],0x1
   140002e6a:	48 83 45 f8 14       	add    QWORD PTR [rbp-0x8],0x14
   140002e6f:	eb c7                	jmp    140002e38 <__mingw_enum_import_library_names+0x9c>
   140002e71:	90                   	nop
   140002e72:	b8 00 00 00 00       	mov    eax,0x0
   140002e77:	48 83 c4 50          	add    rsp,0x50
   140002e7b:	5d                   	pop    rbp
   140002e7c:	c3                   	ret
   140002e7d:	90                   	nop
   140002e7e:	90                   	nop
   140002e7f:	90                   	nop

0000000140002e80 <_Unwind_Resume>:
   140002e80:	ff 25 ea a4 00 00    	jmp    QWORD PTR [rip+0xa4ea]        # 14000d370 <__IAT_start__>
   140002e86:	90                   	nop
   140002e87:	90                   	nop
   140002e88:	0f 1f 84 00 00 00 00 	nop    DWORD PTR [rax+rax*1+0x0]
   140002e8f:	00 

0000000140002e90 <___chkstk_ms>:
   140002e90:	51                   	push   rcx
   140002e91:	50                   	push   rax
   140002e92:	48 3d 00 10 00 00    	cmp    rax,0x1000
   140002e98:	48 8d 4c 24 18       	lea    rcx,[rsp+0x18]
   140002e9d:	72 19                	jb     140002eb8 <___chkstk_ms+0x28>
   140002e9f:	48 81 e9 00 10 00 00 	sub    rcx,0x1000
   140002ea6:	48 83 09 00          	or     QWORD PTR [rcx],0x0
   140002eaa:	48 2d 00 10 00 00    	sub    rax,0x1000
   140002eb0:	48 3d 00 10 00 00    	cmp    rax,0x1000
   140002eb6:	77 e7                	ja     140002e9f <___chkstk_ms+0xf>
   140002eb8:	48 29 c1             	sub    rcx,rax
   140002ebb:	48 83 09 00          	or     QWORD PTR [rcx],0x0
   140002ebf:	58                   	pop    rax
   140002ec0:	59                   	pop    rcx
   140002ec1:	c3                   	ret
   140002ec2:	90                   	nop
   140002ec3:	90                   	nop
   140002ec4:	90                   	nop
   140002ec5:	90                   	nop
   140002ec6:	90                   	nop
   140002ec7:	90                   	nop
   140002ec8:	90                   	nop
   140002ec9:	90                   	nop
   140002eca:	90                   	nop
   140002ecb:	90                   	nop
   140002ecc:	90                   	nop
   140002ecd:	90                   	nop
   140002ece:	90                   	nop
   140002ecf:	90                   	nop

0000000140002ed0 <vfprintf>:
   140002ed0:	55                   	push   rbp
   140002ed1:	48 89 e5             	mov    rbp,rsp
   140002ed4:	48 83 ec 30          	sub    rsp,0x30
   140002ed8:	48 89 4d 10          	mov    QWORD PTR [rbp+0x10],rcx
   140002edc:	48 89 55 18          	mov    QWORD PTR [rbp+0x18],rdx
   140002ee0:	4c 89 45 20          	mov    QWORD PTR [rbp+0x20],r8
   140002ee4:	48 8b 4d 18          	mov    rcx,QWORD PTR [rbp+0x18]
   140002ee8:	48 8b 45 10          	mov    rax,QWORD PTR [rbp+0x10]
   140002eec:	48 8b 55 20          	mov    rdx,QWORD PTR [rbp+0x20]
   140002ef0:	48 89 54 24 20       	mov    QWORD PTR [rsp+0x20],rdx
   140002ef5:	41 b9 00 00 00 00    	mov    r9d,0x0
   140002efb:	49 89 c8             	mov    r8,rcx
   140002efe:	48 89 c2             	mov    rdx,rax
   140002f01:	b9 00 00 00 00       	mov    ecx,0x0
   140002f06:	e8 1d 03 00 00       	call   140003228 <__stdio_common_vfprintf>
   140002f0b:	48 83 c4 30          	add    rsp,0x30
   140002f0f:	5d                   	pop    rbp
   140002f10:	c3                   	ret
   140002f11:	90                   	nop
   140002f12:	90                   	nop
   140002f13:	90                   	nop
   140002f14:	90                   	nop
   140002f15:	90                   	nop
   140002f16:	90                   	nop
   140002f17:	90                   	nop
   140002f18:	90                   	nop
   140002f19:	90                   	nop
   140002f1a:	90                   	nop
   140002f1b:	90                   	nop
   140002f1c:	90                   	nop
   140002f1d:	90                   	nop
   140002f1e:	90                   	nop
   140002f1f:	90                   	nop

0000000140002f20 <fprintf>:
   140002f20:	55                   	push   rbp
   140002f21:	48 89 e5             	mov    rbp,rsp
   140002f24:	48 83 ec 40          	sub    rsp,0x40
   140002f28:	48 89 4d 10          	mov    QWORD PTR [rbp+0x10],rcx
   140002f2c:	48 89 55 18          	mov    QWORD PTR [rbp+0x18],rdx
   140002f30:	4c 89 45 20          	mov    QWORD PTR [rbp+0x20],r8
   140002f34:	4c 89 4d 28          	mov    QWORD PTR [rbp+0x28],r9
   140002f38:	48 8d 45 20          	lea    rax,[rbp+0x20]
   140002f3c:	48 89 45 f0          	mov    QWORD PTR [rbp-0x10],rax
   140002f40:	48 8b 55 f0          	mov    rdx,QWORD PTR [rbp-0x10]
   140002f44:	48 8b 4d 18          	mov    rcx,QWORD PTR [rbp+0x18]
   140002f48:	48 8b 45 10          	mov    rax,QWORD PTR [rbp+0x10]
   140002f4c:	48 89 54 24 20       	mov    QWORD PTR [rsp+0x20],rdx
   140002f51:	41 b9 00 00 00 00    	mov    r9d,0x0
   140002f57:	49 89 c8             	mov    r8,rcx
   140002f5a:	48 89 c2             	mov    rdx,rax
   140002f5d:	b9 00 00 00 00       	mov    ecx,0x0
   140002f62:	e8 c1 02 00 00       	call   140003228 <__stdio_common_vfprintf>
   140002f67:	89 45 fc             	mov    DWORD PTR [rbp-0x4],eax
   140002f6a:	8b 45 fc             	mov    eax,DWORD PTR [rbp-0x4]
   140002f6d:	48 83 c4 40          	add    rsp,0x40
   140002f71:	5d                   	pop    rbp
   140002f72:	c3                   	ret
   140002f73:	90                   	nop
   140002f74:	90                   	nop
   140002f75:	90                   	nop
   140002f76:	90                   	nop
   140002f77:	90                   	nop
   140002f78:	90                   	nop
   140002f79:	90                   	nop
   140002f7a:	90                   	nop
   140002f7b:	90                   	nop
   140002f7c:	90                   	nop
   140002f7d:	90                   	nop
   140002f7e:	90                   	nop
   140002f7f:	90                   	nop

0000000140002f80 <__getmainargs>:
   140002f80:	55                   	push   rbp
   140002f81:	48 89 e5             	mov    rbp,rsp
   140002f84:	48 83 ec 20          	sub    rsp,0x20
   140002f88:	48 89 4d 10          	mov    QWORD PTR [rbp+0x10],rcx
   140002f8c:	48 89 55 18          	mov    QWORD PTR [rbp+0x18],rdx
   140002f90:	4c 89 45 20          	mov    QWORD PTR [rbp+0x20],r8
   140002f94:	44 89 4d 28          	mov    DWORD PTR [rbp+0x28],r9d
   140002f98:	e8 eb 02 00 00       	call   140003288 <_initialize_narrow_environment>
   140002f9d:	83 7d 28 00          	cmp    DWORD PTR [rbp+0x28],0x0
   140002fa1:	74 07                	je     140002faa <__getmainargs+0x2a>
   140002fa3:	b8 02 00 00 00       	mov    eax,0x2
   140002fa8:	eb 05                	jmp    140002faf <__getmainargs+0x2f>
   140002faa:	b8 01 00 00 00       	mov    eax,0x1
   140002faf:	89 c1                	mov    ecx,eax
   140002fb1:	e8 aa 02 00 00       	call   140003260 <_configure_narrow_argv>
   140002fb6:	e8 85 02 00 00       	call   140003240 <__p___argc>
   140002fbb:	8b 10                	mov    edx,DWORD PTR [rax]
   140002fbd:	48 8b 45 10          	mov    rax,QWORD PTR [rbp+0x10]
   140002fc1:	89 10                	mov    DWORD PTR [rax],edx
   140002fc3:	e8 80 02 00 00       	call   140003248 <__p___argv>
   140002fc8:	48 8b 10             	mov    rdx,QWORD PTR [rax]
   140002fcb:	48 8b 45 18          	mov    rax,QWORD PTR [rbp+0x18]
   140002fcf:	48 89 10             	mov    QWORD PTR [rax],rdx
   140002fd2:	e8 49 03 00 00       	call   140003320 <__p__environ>
   140002fd7:	48 8b 10             	mov    rdx,QWORD PTR [rax]
   140002fda:	48 8b 45 20          	mov    rax,QWORD PTR [rbp+0x20]
   140002fde:	48 89 10             	mov    QWORD PTR [rax],rdx
   140002fe1:	48 83 7d 30 00       	cmp    QWORD PTR [rbp+0x30],0x0
   140002fe6:	74 0d                	je     140002ff5 <__getmainargs+0x75>
   140002fe8:	48 8b 45 30          	mov    rax,QWORD PTR [rbp+0x30]
   140002fec:	8b 00                	mov    eax,DWORD PTR [rax]
   140002fee:	89 c1                	mov    ecx,eax
   140002ff0:	e8 0b 03 00 00       	call   140003300 <_set_new_mode>
   140002ff5:	b8 00 00 00 00       	mov    eax,0x0
   140002ffa:	48 83 c4 20          	add    rsp,0x20
   140002ffe:	5d                   	pop    rbp
   140002fff:	c3                   	ret

0000000140003000 <__wgetmainargs>:
   140003000:	55                   	push   rbp
   140003001:	48 89 e5             	mov    rbp,rsp
   140003004:	48 83 ec 20          	sub    rsp,0x20
   140003008:	48 89 4d 10          	mov    QWORD PTR [rbp+0x10],rcx
   14000300c:	48 89 55 18          	mov    QWORD PTR [rbp+0x18],rdx
   140003010:	4c 89 45 20          	mov    QWORD PTR [rbp+0x20],r8
   140003014:	44 89 4d 28          	mov    DWORD PTR [rbp+0x28],r9d
   140003018:	e8 73 02 00 00       	call   140003290 <_initialize_wide_environment>
   14000301d:	83 7d 28 00          	cmp    DWORD PTR [rbp+0x28],0x0
   140003021:	74 07                	je     14000302a <__wgetmainargs+0x2a>
   140003023:	b8 02 00 00 00       	mov    eax,0x2
   140003028:	eb 05                	jmp    14000302f <__wgetmainargs+0x2f>
   14000302a:	b8 01 00 00 00       	mov    eax,0x1
   14000302f:	89 c1                	mov    ecx,eax
   140003031:	e8 32 02 00 00       	call   140003268 <_configure_wide_argv>
   140003036:	e8 05 02 00 00       	call   140003240 <__p___argc>
   14000303b:	8b 10                	mov    edx,DWORD PTR [rax]
   14000303d:	48 8b 45 10          	mov    rax,QWORD PTR [rbp+0x10]
   140003041:	89 10                	mov    DWORD PTR [rax],edx
   140003043:	e8 08 02 00 00       	call   140003250 <__p___wargv>
   140003048:	48 8b 10             	mov    rdx,QWORD PTR [rax]
   14000304b:	48 8b 45 18          	mov    rax,QWORD PTR [rbp+0x18]
   14000304f:	48 89 10             	mov    QWORD PTR [rax],rdx
   140003052:	e8 d1 02 00 00       	call   140003328 <__p__wenviron>
   140003057:	48 8b 10             	mov    rdx,QWORD PTR [rax]
   14000305a:	48 8b 45 20          	mov    rax,QWORD PTR [rbp+0x20]
   14000305e:	48 89 10             	mov    QWORD PTR [rax],rdx
   140003061:	48 83 7d 30 00       	cmp    QWORD PTR [rbp+0x30],0x0
   140003066:	74 0d                	je     140003075 <__wgetmainargs+0x75>
   140003068:	48 8b 45 30          	mov    rax,QWORD PTR [rbp+0x30]
   14000306c:	8b 00                	mov    eax,DWORD PTR [rax]
   14000306e:	89 c1                	mov    ecx,eax
   140003070:	e8 8b 02 00 00       	call   140003300 <_set_new_mode>
   140003075:	b8 00 00 00 00       	mov    eax,0x0
   14000307a:	48 83 c4 20          	add    rsp,0x20
   14000307e:	5d                   	pop    rbp
   14000307f:	c3                   	ret

0000000140003080 <_onexit>:
   140003080:	55                   	push   rbp
   140003081:	48 89 e5             	mov    rbp,rsp
   140003084:	48 83 ec 20          	sub    rsp,0x20
   140003088:	48 89 4d 10          	mov    QWORD PTR [rbp+0x10],rcx
   14000308c:	48 8b 45 10          	mov    rax,QWORD PTR [rbp+0x10]
   140003090:	48 89 c1             	mov    rcx,rax
   140003093:	e8 e0 01 00 00       	call   140003278 <_crt_atexit>
   140003098:	85 c0                	test   eax,eax
   14000309a:	75 06                	jne    1400030a2 <_onexit+0x22>
   14000309c:	48 8b 45 10          	mov    rax,QWORD PTR [rbp+0x10]
   1400030a0:	eb 05                	jmp    1400030a7 <_onexit+0x27>
   1400030a2:	b8 00 00 00 00       	mov    eax,0x0
   1400030a7:	48 83 c4 20          	add    rsp,0x20
   1400030ab:	5d                   	pop    rbp
   1400030ac:	c3                   	ret

00000001400030ad <at_quick_exit>:
   1400030ad:	55                   	push   rbp
   1400030ae:	48 89 e5             	mov    rbp,rsp
   1400030b1:	48 83 ec 20          	sub    rsp,0x20
   1400030b5:	48 89 4d 10          	mov    QWORD PTR [rbp+0x10],rcx
   1400030b9:	48 8b 05 70 54 00 00 	mov    rax,QWORD PTR [rip+0x5470]        # 140008530 <.refptr.__mingw_module_is_dll>
   1400030c0:	0f b6 00             	movzx  eax,BYTE PTR [rax]
   1400030c3:	84 c0                	test   al,al
   1400030c5:	74 07                	je     1400030ce <at_quick_exit+0x21>
   1400030c7:	b8 00 00 00 00       	mov    eax,0x0
   1400030cc:	eb 0c                	jmp    1400030da <at_quick_exit+0x2d>
   1400030ce:	48 8b 45 10          	mov    rax,QWORD PTR [rbp+0x10]
   1400030d2:	48 89 c1             	mov    rcx,rax
   1400030d5:	e8 96 01 00 00       	call   140003270 <_crt_at_quick_exit>
   1400030da:	48 83 c4 20          	add    rsp,0x20
   1400030de:	5d                   	pop    rbp
   1400030df:	c3                   	ret

00000001400030e0 <_amsg_exit>:
   1400030e0:	55                   	push   rbp
   1400030e1:	48 89 e5             	mov    rbp,rsp
   1400030e4:	48 83 ec 20          	sub    rsp,0x20
   1400030e8:	89 4d 10             	mov    DWORD PTR [rbp+0x10],ecx
   1400030eb:	b9 02 00 00 00       	mov    ecx,0x2
   1400030f0:	e8 1b 01 00 00       	call   140003210 <__acrt_iob_func>
   1400030f5:	48 89 c1             	mov    rcx,rax
   1400030f8:	8b 45 10             	mov    eax,DWORD PTR [rbp+0x10]
   1400030fb:	41 89 c0             	mov    r8d,eax
   1400030fe:	48 8d 05 0b 53 00 00 	lea    rax,[rip+0x530b]        # 140008410 <.rdata>
   140003105:	48 89 c2             	mov    rdx,rax
   140003108:	e8 13 fe ff ff       	call   140002f20 <fprintf>
   14000310d:	b9 ff 00 00 00       	mov    ecx,0xff
   140003112:	e8 69 01 00 00       	call   140003280 <_exit>
   140003117:	90                   	nop

0000000140003118 <_get_output_format>:
   140003118:	55                   	push   rbp
   140003119:	48 89 e5             	mov    rbp,rsp
   14000311c:	b8 00 00 00 00       	mov    eax,0x0
   140003121:	5d                   	pop    rbp
   140003122:	c3                   	ret

0000000140003123 <_tzset>:
   140003123:	55                   	push   rbp
   140003124:	48 89 e5             	mov    rbp,rsp
   140003127:	48 83 ec 20          	sub    rsp,0x20
   14000312b:	48 8b 05 ae 53 00 00 	mov    rax,QWORD PTR [rip+0x53ae]        # 1400084e0 <.refptr.__imp__tzset>
   140003132:	48 8b 00             	mov    rax,QWORD PTR [rax]
   140003135:	ff d0                	call   rax
   140003137:	e8 a4 00 00 00       	call   1400031e0 <__tzname>
   14000313c:	48 89 05 95 3f 00 00 	mov    QWORD PTR [rip+0x3f95],rax        # 1400070d8 <__imp_tzname>
   140003143:	e8 90 00 00 00       	call   1400031d8 <__timezone>
   140003148:	48 89 05 91 3f 00 00 	mov    QWORD PTR [rip+0x3f91],rax        # 1400070e0 <__imp_timezone>
   14000314f:	e8 7c 00 00 00       	call   1400031d0 <__daylight>
   140003154:	48 89 05 8d 3f 00 00 	mov    QWORD PTR [rip+0x3f8d],rax        # 1400070e8 <__imp_daylight>
   14000315b:	90                   	nop
   14000315c:	48 83 c4 20          	add    rsp,0x20
   140003160:	5d                   	pop    rbp
   140003161:	c3                   	ret

0000000140003162 <tzset>:
   140003162:	55                   	push   rbp
   140003163:	48 89 e5             	mov    rbp,rsp
   140003166:	48 83 ec 20          	sub    rsp,0x20
   14000316a:	e8 b4 ff ff ff       	call   140003123 <_tzset>
   14000316f:	90                   	nop
   140003170:	48 83 c4 20          	add    rsp,0x20
   140003174:	5d                   	pop    rbp
   140003175:	c3                   	ret

0000000140003176 <__ms_fwprintf>:
   140003176:	55                   	push   rbp
   140003177:	48 89 e5             	mov    rbp,rsp
   14000317a:	48 83 ec 40          	sub    rsp,0x40
   14000317e:	48 89 4d 10          	mov    QWORD PTR [rbp+0x10],rcx
   140003182:	48 89 55 18          	mov    QWORD PTR [rbp+0x18],rdx
   140003186:	4c 89 45 20          	mov    QWORD PTR [rbp+0x20],r8
   14000318a:	4c 89 4d 28          	mov    QWORD PTR [rbp+0x28],r9
   14000318e:	48 8d 45 20          	lea    rax,[rbp+0x20]
   140003192:	48 89 45 f0          	mov    QWORD PTR [rbp-0x10],rax
   140003196:	48 8b 55 f0          	mov    rdx,QWORD PTR [rbp-0x10]
   14000319a:	48 8b 4d 18          	mov    rcx,QWORD PTR [rbp+0x18]
   14000319e:	48 8b 45 10          	mov    rax,QWORD PTR [rbp+0x10]
   1400031a2:	48 89 54 24 20       	mov    QWORD PTR [rsp+0x20],rdx
   1400031a7:	41 b9 00 00 00 00    	mov    r9d,0x0
   1400031ad:	49 89 c8             	mov    r8,rcx
   1400031b0:	48 89 c2             	mov    rdx,rax
   1400031b3:	b9 04 00 00 00       	mov    ecx,0x4
   1400031b8:	e8 73 00 00 00       	call   140003230 <__stdio_common_vfwprintf>
   1400031bd:	89 45 fc             	mov    DWORD PTR [rbp-0x4],eax
   1400031c0:	8b 45 fc             	mov    eax,DWORD PTR [rbp-0x4]
   1400031c3:	48 83 c4 40          	add    rsp,0x40
   1400031c7:	5d                   	pop    rbp
   1400031c8:	c3                   	ret
   1400031c9:	90                   	nop
   1400031ca:	90                   	nop
   1400031cb:	90                   	nop
   1400031cc:	90                   	nop
   1400031cd:	90                   	nop
   1400031ce:	90                   	nop
   1400031cf:	90                   	nop

00000001400031d0 <__daylight>:
   1400031d0:	ff 25 f2 a3 00 00    	jmp    QWORD PTR [rip+0xa3f2]        # 14000d5c8 <__imp___daylight>
   1400031d6:	90                   	nop
   1400031d7:	90                   	nop

00000001400031d8 <__timezone>:
   1400031d8:	ff 25 f2 a3 00 00    	jmp    QWORD PTR [rip+0xa3f2]        # 14000d5d0 <__imp___timezone>
   1400031de:	90                   	nop
   1400031df:	90                   	nop

00000001400031e0 <__tzname>:
   1400031e0:	ff 25 f2 a3 00 00    	jmp    QWORD PTR [rip+0xa3f2]        # 14000d5d8 <__imp___tzname>
   1400031e6:	90                   	nop
   1400031e7:	90                   	nop

00000001400031e8 <.text>:
   1400031e8:	0f 1f 84 00 00 00 00 	nop    DWORD PTR [rax+rax*1+0x0]
   1400031ef:	00 

00000001400031f0 <memset>:
   1400031f0:	ff 25 b2 a3 00 00    	jmp    QWORD PTR [rip+0xa3b2]        # 14000d5a8 <__imp_memset>
   1400031f6:	90                   	nop
   1400031f7:	90                   	nop

00000001400031f8 <strlen>:
   1400031f8:	ff 25 b2 a3 00 00    	jmp    QWORD PTR [rip+0xa3b2]        # 14000d5b0 <__imp_strlen>
   1400031fe:	90                   	nop
   1400031ff:	90                   	nop

0000000140003200 <strncmp>:
   140003200:	ff 25 b2 a3 00 00    	jmp    QWORD PTR [rip+0xa3b2]        # 14000d5b8 <__imp_strncmp>
   140003206:	90                   	nop
   140003207:	90                   	nop
   140003208:	0f 1f 84 00 00 00 00 	nop    DWORD PTR [rax+rax*1+0x0]
   14000320f:	00 

0000000140003210 <__acrt_iob_func>:
   140003210:	ff 25 5a a3 00 00    	jmp    QWORD PTR [rip+0xa35a]        # 14000d570 <__imp___acrt_iob_func>
   140003216:	90                   	nop
   140003217:	90                   	nop

0000000140003218 <__p__commode>:
   140003218:	ff 25 5a a3 00 00    	jmp    QWORD PTR [rip+0xa35a]        # 14000d578 <__imp___p__commode>
   14000321e:	90                   	nop
   14000321f:	90                   	nop

0000000140003220 <__p__fmode>:
   140003220:	ff 25 5a a3 00 00    	jmp    QWORD PTR [rip+0xa35a]        # 14000d580 <__imp___p__fmode>
   140003226:	90                   	nop
   140003227:	90                   	nop

0000000140003228 <__stdio_common_vfprintf>:
   140003228:	ff 25 5a a3 00 00    	jmp    QWORD PTR [rip+0xa35a]        # 14000d588 <__imp___stdio_common_vfprintf>
   14000322e:	90                   	nop
   14000322f:	90                   	nop

0000000140003230 <__stdio_common_vfwprintf>:
   140003230:	ff 25 5a a3 00 00    	jmp    QWORD PTR [rip+0xa35a]        # 14000d590 <__imp___stdio_common_vfwprintf>
   140003236:	90                   	nop
   140003237:	90                   	nop

0000000140003238 <fwrite>:
   140003238:	ff 25 5a a3 00 00    	jmp    QWORD PTR [rip+0xa35a]        # 14000d598 <__imp_fwrite>
   14000323e:	90                   	nop
   14000323f:	90                   	nop

0000000140003240 <__p___argc>:
   140003240:	ff 25 9a a2 00 00    	jmp    QWORD PTR [rip+0xa29a]        # 14000d4e0 <__imp___p___argc>
   140003246:	90                   	nop
   140003247:	90                   	nop

0000000140003248 <__p___argv>:
   140003248:	ff 25 9a a2 00 00    	jmp    QWORD PTR [rip+0xa29a]        # 14000d4e8 <__imp___p___argv>
   14000324e:	90                   	nop
   14000324f:	90                   	nop

0000000140003250 <__p___wargv>:
   140003250:	ff 25 9a a2 00 00    	jmp    QWORD PTR [rip+0xa29a]        # 14000d4f0 <__imp___p___wargv>
   140003256:	90                   	nop
   140003257:	90                   	nop

0000000140003258 <_cexit>:
   140003258:	ff 25 9a a2 00 00    	jmp    QWORD PTR [rip+0xa29a]        # 14000d4f8 <__imp__cexit>
   14000325e:	90                   	nop
   14000325f:	90                   	nop

0000000140003260 <_configure_narrow_argv>:
   140003260:	ff 25 9a a2 00 00    	jmp    QWORD PTR [rip+0xa29a]        # 14000d500 <__imp__configure_narrow_argv>
   140003266:	90                   	nop
   140003267:	90                   	nop

0000000140003268 <_configure_wide_argv>:
   140003268:	ff 25 9a a2 00 00    	jmp    QWORD PTR [rip+0xa29a]        # 14000d508 <__imp__configure_wide_argv>
   14000326e:	90                   	nop
   14000326f:	90                   	nop

0000000140003270 <_crt_at_quick_exit>:
   140003270:	ff 25 9a a2 00 00    	jmp    QWORD PTR [rip+0xa29a]        # 14000d510 <__imp__crt_at_quick_exit>
   140003276:	90                   	nop
   140003277:	90                   	nop

0000000140003278 <_crt_atexit>:
   140003278:	ff 25 9a a2 00 00    	jmp    QWORD PTR [rip+0xa29a]        # 14000d518 <__imp__crt_atexit>
   14000327e:	90                   	nop
   14000327f:	90                   	nop

0000000140003280 <_exit>:
   140003280:	ff 25 9a a2 00 00    	jmp    QWORD PTR [rip+0xa29a]        # 14000d520 <__imp__exit>
   140003286:	90                   	nop
   140003287:	90                   	nop

0000000140003288 <_initialize_narrow_environment>:
   140003288:	ff 25 9a a2 00 00    	jmp    QWORD PTR [rip+0xa29a]        # 14000d528 <__imp__initialize_narrow_environment>
   14000328e:	90                   	nop
   14000328f:	90                   	nop

0000000140003290 <_initialize_wide_environment>:
   140003290:	ff 25 9a a2 00 00    	jmp    QWORD PTR [rip+0xa29a]        # 14000d530 <__imp__initialize_wide_environment>
   140003296:	90                   	nop
   140003297:	90                   	nop

0000000140003298 <_initterm>:
   140003298:	ff 25 9a a2 00 00    	jmp    QWORD PTR [rip+0xa29a]        # 14000d538 <__imp__initterm>
   14000329e:	90                   	nop
   14000329f:	90                   	nop

00000001400032a0 <__set_app_type>:
   1400032a0:	ff 25 9a a2 00 00    	jmp    QWORD PTR [rip+0xa29a]        # 14000d540 <__imp___set_app_type>
   1400032a6:	90                   	nop
   1400032a7:	90                   	nop

00000001400032a8 <_set_invalid_parameter_handler>:
   1400032a8:	ff 25 9a a2 00 00    	jmp    QWORD PTR [rip+0xa29a]        # 14000d548 <__imp__set_invalid_parameter_handler>
   1400032ae:	90                   	nop
   1400032af:	90                   	nop

00000001400032b0 <abort>:
   1400032b0:	ff 25 9a a2 00 00    	jmp    QWORD PTR [rip+0xa29a]        # 14000d550 <__imp_abort>
   1400032b6:	90                   	nop
   1400032b7:	90                   	nop

00000001400032b8 <exit>:
   1400032b8:	ff 25 9a a2 00 00    	jmp    QWORD PTR [rip+0xa29a]        # 14000d558 <__imp_exit>
   1400032be:	90                   	nop
   1400032bf:	90                   	nop

00000001400032c0 <signal>:
   1400032c0:	ff 25 9a a2 00 00    	jmp    QWORD PTR [rip+0xa29a]        # 14000d560 <__imp_signal>
   1400032c6:	90                   	nop
   1400032c7:	90                   	nop
   1400032c8:	0f 1f 84 00 00 00 00 	nop    DWORD PTR [rax+rax*1+0x0]
   1400032cf:	00 

00000001400032d0 <__C_specific_handler>:
   1400032d0:	ff 25 ea a1 00 00    	jmp    QWORD PTR [rip+0xa1ea]        # 14000d4c0 <__imp___C_specific_handler>
   1400032d6:	90                   	nop
   1400032d7:	90                   	nop

00000001400032d8 <memcpy>:
   1400032d8:	ff 25 ea a1 00 00    	jmp    QWORD PTR [rip+0xa1ea]        # 14000d4c8 <__imp_memcpy>
   1400032de:	90                   	nop
   1400032df:	90                   	nop

00000001400032e0 <memmove>:
   1400032e0:	ff 25 ea a1 00 00    	jmp    QWORD PTR [rip+0xa1ea]        # 14000d4d0 <__imp_memmove>
   1400032e6:	90                   	nop
   1400032e7:	90                   	nop
   1400032e8:	0f 1f 84 00 00 00 00 	nop    DWORD PTR [rax+rax*1+0x0]
   1400032ef:	00 

00000001400032f0 <__setusermatherr>:
   1400032f0:	ff 25 ba a1 00 00    	jmp    QWORD PTR [rip+0xa1ba]        # 14000d4b0 <__imp___setusermatherr>
   1400032f6:	90                   	nop
   1400032f7:	90                   	nop
   1400032f8:	0f 1f 84 00 00 00 00 	nop    DWORD PTR [rax+rax*1+0x0]
   1400032ff:	00 

0000000140003300 <_set_new_mode>:
   140003300:	ff 25 82 a1 00 00    	jmp    QWORD PTR [rip+0xa182]        # 14000d488 <__imp__set_new_mode>
   140003306:	90                   	nop
   140003307:	90                   	nop

0000000140003308 <calloc>:
   140003308:	ff 25 82 a1 00 00    	jmp    QWORD PTR [rip+0xa182]        # 14000d490 <__imp_calloc>
   14000330e:	90                   	nop
   14000330f:	90                   	nop

0000000140003310 <free>:
   140003310:	ff 25 82 a1 00 00    	jmp    QWORD PTR [rip+0xa182]        # 14000d498 <__imp_free>
   140003316:	90                   	nop
   140003317:	90                   	nop

0000000140003318 <malloc>:
   140003318:	ff 25 82 a1 00 00    	jmp    QWORD PTR [rip+0xa182]        # 14000d4a0 <__imp_malloc>
   14000331e:	90                   	nop
   14000331f:	90                   	nop

0000000140003320 <__p__environ>:
   140003320:	ff 25 4a a1 00 00    	jmp    QWORD PTR [rip+0xa14a]        # 14000d470 <__imp___p__environ>
   140003326:	90                   	nop
   140003327:	90                   	nop

0000000140003328 <__p__wenviron>:
   140003328:	ff 25 4a a1 00 00    	jmp    QWORD PTR [rip+0xa14a]        # 14000d478 <__imp___p__wenviron>
   14000332e:	90                   	nop
   14000332f:	90                   	nop

0000000140003330 <VirtualQuery>:
   140003330:	ff 25 2a a1 00 00    	jmp    QWORD PTR [rip+0xa12a]        # 14000d460 <__imp_VirtualQuery>
   140003336:	90                   	nop
   140003337:	90                   	nop

0000000140003338 <VirtualProtect>:
   140003338:	ff 25 1a a1 00 00    	jmp    QWORD PTR [rip+0xa11a]        # 14000d458 <__imp_VirtualProtect>
   14000333e:	90                   	nop
   14000333f:	90                   	nop

0000000140003340 <TlsGetValue>:
   140003340:	ff 25 0a a1 00 00    	jmp    QWORD PTR [rip+0xa10a]        # 14000d450 <__imp_TlsGetValue>
   140003346:	90                   	nop
   140003347:	90                   	nop

0000000140003348 <Sleep>:
   140003348:	ff 25 fa a0 00 00    	jmp    QWORD PTR [rip+0xa0fa]        # 14000d448 <__imp_Sleep>
   14000334e:	90                   	nop
   14000334f:	90                   	nop

0000000140003350 <SetUnhandledExceptionFilter>:
   140003350:	ff 25 ea a0 00 00    	jmp    QWORD PTR [rip+0xa0ea]        # 14000d440 <__imp_SetUnhandledExceptionFilter>
   140003356:	90                   	nop
   140003357:	90                   	nop

0000000140003358 <LoadLibraryA>:
   140003358:	ff 25 da a0 00 00    	jmp    QWORD PTR [rip+0xa0da]        # 14000d438 <__imp_LoadLibraryA>
   14000335e:	90                   	nop
   14000335f:	90                   	nop

0000000140003360 <LeaveCriticalSection>:
   140003360:	ff 25 ca a0 00 00    	jmp    QWORD PTR [rip+0xa0ca]        # 14000d430 <__imp_LeaveCriticalSection>
   140003366:	90                   	nop
   140003367:	90                   	nop

0000000140003368 <InitializeCriticalSection>:
   140003368:	ff 25 ba a0 00 00    	jmp    QWORD PTR [rip+0xa0ba]        # 14000d428 <__imp_InitializeCriticalSection>
   14000336e:	90                   	nop
   14000336f:	90                   	nop

0000000140003370 <GetProcAddress>:
   140003370:	ff 25 aa a0 00 00    	jmp    QWORD PTR [rip+0xa0aa]        # 14000d420 <__imp_GetProcAddress>
   140003376:	90                   	nop
   140003377:	90                   	nop

0000000140003378 <GetModuleHandleA>:
   140003378:	ff 25 9a a0 00 00    	jmp    QWORD PTR [rip+0xa09a]        # 14000d418 <__imp_GetModuleHandleA>
   14000337e:	90                   	nop
   14000337f:	90                   	nop

0000000140003380 <GetLastError>:
   140003380:	ff 25 8a a0 00 00    	jmp    QWORD PTR [rip+0xa08a]        # 14000d410 <__imp_GetLastError>
   140003386:	90                   	nop
   140003387:	90                   	nop

0000000140003388 <FreeLibrary>:
   140003388:	ff 25 7a a0 00 00    	jmp    QWORD PTR [rip+0xa07a]        # 14000d408 <__imp_FreeLibrary>
   14000338e:	90                   	nop
   14000338f:	90                   	nop

0000000140003390 <EnterCriticalSection>:
   140003390:	ff 25 6a a0 00 00    	jmp    QWORD PTR [rip+0xa06a]        # 14000d400 <__imp_EnterCriticalSection>
   140003396:	90                   	nop
   140003397:	90                   	nop

0000000140003398 <DeleteCriticalSection>:
   140003398:	ff 25 5a a0 00 00    	jmp    QWORD PTR [rip+0xa05a]        # 14000d3f8 <__imp_DeleteCriticalSection>
   14000339e:	90                   	nop
   14000339f:	90                   	nop

00000001400033a0 <_ZN8Solution15specialTripletsESt6vectorIiSaIiEE>:
   1400033a0:	55                   	push   rbp
   1400033a1:	53                   	push   rbx
   1400033a2:	48 81 ec 08 01 00 00 	sub    rsp,0x108
   1400033a9:	48 8d ac 24 80 00 00 	lea    rbp,[rsp+0x80]
   1400033b0:	00 
   1400033b1:	48 89 8d a0 00 00 00 	mov    QWORD PTR [rbp+0xa0],rcx
   1400033b8:	48 89 95 a8 00 00 00 	mov    QWORD PTR [rbp+0xa8],rdx
   1400033bf:	48 8d 45 f0          	lea    rax,[rbp-0x10]
   1400033c3:	48 89 c1             	mov    rcx,rax
   1400033c6:	e8 75 16 00 00       	call   140004a40 <_ZNSt13unordered_mapIllSt4hashIlESt8equal_toIlESaISt4pairIKllEEEC1Ev>
   1400033cb:	48 8d 45 b0          	lea    rax,[rbp-0x50]
   1400033cf:	48 89 c1             	mov    rcx,rax
   1400033d2:	e8 69 16 00 00       	call   140004a40 <_ZNSt13unordered_mapIllSt4hashIlESt8equal_toIlESaISt4pairIKllEEEC1Ev>
   1400033d7:	48 c7 45 68 07 ca 9a 	mov    QWORD PTR [rbp+0x68],0x3b9aca07
   1400033de:	3b 
   1400033df:	48 8b 85 a8 00 00 00 	mov    rax,QWORD PTR [rbp+0xa8]
   1400033e6:	48 89 45 60          	mov    QWORD PTR [rbp+0x60],rax
   1400033ea:	48 8b 45 60          	mov    rax,QWORD PTR [rbp+0x60]
   1400033ee:	48 89 c1             	mov    rcx,rax
   1400033f1:	e8 3a 1c 00 00       	call   140005030 <_ZNSt6vectorIiSaIiEE5beginEv>
   1400033f6:	48 89 45 a8          	mov    QWORD PTR [rbp-0x58],rax
   1400033fa:	48 8b 45 60          	mov    rax,QWORD PTR [rbp+0x60]
   1400033fe:	48 89 c1             	mov    rcx,rax
   140003401:	e8 fa 1b 00 00       	call   140005000 <_ZNSt6vectorIiSaIiEE3endEv>
   140003406:	48 89 45 a0          	mov    QWORD PTR [rbp-0x60],rax
   14000340a:	eb 3a                	jmp    140003446 <_ZN8Solution15specialTripletsESt6vectorIiSaIiEE+0xa6>
   14000340c:	48 8d 45 a8          	lea    rax,[rbp-0x58]
   140003410:	48 89 c1             	mov    rcx,rax
   140003413:	e8 98 03 00 00       	call   1400037b0 <_ZNK9__gnu_cxx17__normal_iteratorIPiSt6vectorIiSaIiEEEdeEv>
   140003418:	8b 00                	mov    eax,DWORD PTR [rax]
   14000341a:	89 45 3c             	mov    DWORD PTR [rbp+0x3c],eax
   14000341d:	8b 45 3c             	mov    eax,DWORD PTR [rbp+0x3c]
   140003420:	89 45 28             	mov    DWORD PTR [rbp+0x28],eax
   140003423:	48 8d 55 28          	lea    rdx,[rbp+0x28]
   140003427:	48 8d 45 b0          	lea    rax,[rbp-0x50]
   14000342b:	48 89 c1             	mov    rcx,rax
   14000342e:	e8 4d 16 00 00       	call   140004a80 <_ZNSt13unordered_mapIllSt4hashIlESt8equal_toIlESaISt4pairIKllEEEixEOl>
   140003433:	8b 10                	mov    edx,DWORD PTR [rax]
   140003435:	83 c2 01             	add    edx,0x1
   140003438:	89 10                	mov    DWORD PTR [rax],edx
   14000343a:	48 8d 45 a8          	lea    rax,[rbp-0x58]
   14000343e:	48 89 c1             	mov    rcx,rax
   140003441:	e8 5a 02 00 00       	call   1400036a0 <_ZN9__gnu_cxx17__normal_iteratorIPiSt6vectorIiSaIiEEEppEv>
   140003446:	48 8d 55 a0          	lea    rdx,[rbp-0x60]
   14000344a:	48 8d 45 a8          	lea    rax,[rbp-0x58]
   14000344e:	48 89 c1             	mov    rcx,rax
   140003451:	e8 aa 02 00 00       	call   140003700 <_ZN9__gnu_cxxeqIPiSt6vectorIiSaIiEEEEbRKNS_17__normal_iteratorIT_T0_EESA_QrqXeqcldtfL0p_4baseEcldtfL0p0_4baseERSt14convertible_toIbEE>
   140003456:	83 f0 01             	xor    eax,0x1
   140003459:	84 c0                	test   al,al
   14000345b:	75 af                	jne    14000340c <_ZN8Solution15specialTripletsESt6vectorIiSaIiEE+0x6c>
   14000345d:	48 c7 45 78 00 00 00 	mov    QWORD PTR [rbp+0x78],0x0
   140003464:	00 
   140003465:	c7 45 74 00 00 00 00 	mov    DWORD PTR [rbp+0x74],0x0
   14000346c:	e9 24 01 00 00       	jmp    140003595 <_ZN8Solution15specialTripletsESt6vectorIiSaIiEE+0x1f5>
   140003471:	8b 45 74             	mov    eax,DWORD PTR [rbp+0x74]
   140003474:	48 63 d0             	movsxd rdx,eax
   140003477:	48 8b 85 a8 00 00 00 	mov    rax,QWORD PTR [rbp+0xa8]
   14000347e:	48 89 c1             	mov    rcx,rax
   140003481:	e8 ba 1d 00 00       	call   140005240 <_ZNSt6vectorIiSaIiEEixEy>
   140003486:	8b 00                	mov    eax,DWORD PTR [rax]
   140003488:	48 98                	cdqe
   14000348a:	48 89 45 58          	mov    QWORD PTR [rbp+0x58],rax
   14000348e:	48 8b 45 58          	mov    rax,QWORD PTR [rbp+0x58]
   140003492:	89 45 2c             	mov    DWORD PTR [rbp+0x2c],eax
   140003495:	48 8d 55 2c          	lea    rdx,[rbp+0x2c]
   140003499:	48 8d 45 b0          	lea    rax,[rbp-0x50]
   14000349d:	48 89 c1             	mov    rcx,rax
   1400034a0:	e8 db 15 00 00       	call   140004a80 <_ZNSt13unordered_mapIllSt4hashIlESt8equal_toIlESaISt4pairIKllEEEixEOl>
   1400034a5:	8b 10                	mov    edx,DWORD PTR [rax]
   1400034a7:	83 ea 01             	sub    edx,0x1
   1400034aa:	89 10                	mov    DWORD PTR [rax],edx
   1400034ac:	48 8b 45 58          	mov    rax,QWORD PTR [rbp+0x58]
   1400034b0:	48 01 c0             	add    rax,rax
   1400034b3:	48 89 45 50          	mov    QWORD PTR [rbp+0x50],rax
   1400034b7:	48 8b 45 50          	mov    rax,QWORD PTR [rbp+0x50]
   1400034bb:	89 45 30             	mov    DWORD PTR [rbp+0x30],eax
   1400034be:	48 8d 55 30          	lea    rdx,[rbp+0x30]
   1400034c2:	48 8d 45 f0          	lea    rax,[rbp-0x10]
   1400034c6:	48 89 c1             	mov    rcx,rax
   1400034c9:	e8 b2 15 00 00       	call   140004a80 <_ZNSt13unordered_mapIllSt4hashIlESt8equal_toIlESaISt4pairIKllEEEixEOl>
   1400034ce:	8b 00                	mov    eax,DWORD PTR [rax]
   1400034d0:	48 98                	cdqe
   1400034d2:	48 89 45 48          	mov    QWORD PTR [rbp+0x48],rax
   1400034d6:	48 8b 45 50          	mov    rax,QWORD PTR [rbp+0x50]
   1400034da:	89 45 34             	mov    DWORD PTR [rbp+0x34],eax
   1400034dd:	48 8d 55 34          	lea    rdx,[rbp+0x34]
   1400034e1:	48 8d 45 b0          	lea    rax,[rbp-0x50]
   1400034e5:	48 89 c1             	mov    rcx,rax
   1400034e8:	e8 93 15 00 00       	call   140004a80 <_ZNSt13unordered_mapIllSt4hashIlESt8equal_toIlESaISt4pairIKllEEEixEOl>
   1400034ed:	8b 00                	mov    eax,DWORD PTR [rax]
   1400034ef:	48 98                	cdqe
   1400034f1:	48 89 45 40          	mov    QWORD PTR [rbp+0x40],rax
   1400034f5:	48 8b 45 48          	mov    rax,QWORD PTR [rbp+0x48]
   1400034f9:	48 0f af 45 40       	imul   rax,QWORD PTR [rbp+0x40]
   1400034fe:	48 89 c1             	mov    rcx,rax
   140003501:	48 ba e5 8f a2 12 31 	movabs rdx,0x89705f3112a28fe5
   140003508:	5f 70 89 
   14000350b:	48 89 c8             	mov    rax,rcx
   14000350e:	48 f7 ea             	imul   rdx
   140003511:	48 8d 04 0a          	lea    rax,[rdx+rcx*1]
   140003515:	48 c1 f8 1d          	sar    rax,0x1d
   140003519:	48 89 ca             	mov    rdx,rcx
   14000351c:	48 c1 fa 3f          	sar    rdx,0x3f
   140003520:	48 29 d0             	sub    rax,rdx
   140003523:	48 69 d0 07 ca 9a 3b 	imul   rdx,rax,0x3b9aca07
   14000352a:	48 89 c8             	mov    rax,rcx
   14000352d:	48 29 d0             	sub    rax,rdx
   140003530:	48 8b 55 78          	mov    rdx,QWORD PTR [rbp+0x78]
   140003534:	48 8d 0c 10          	lea    rcx,[rax+rdx*1]
   140003538:	48 ba e5 8f a2 12 31 	movabs rdx,0x89705f3112a28fe5
   14000353f:	5f 70 89 
   140003542:	48 89 c8             	mov    rax,rcx
   140003545:	48 f7 ea             	imul   rdx
   140003548:	48 8d 04 0a          	lea    rax,[rdx+rcx*1]
   14000354c:	48 c1 f8 1d          	sar    rax,0x1d
   140003550:	48 89 ca             	mov    rdx,rcx
   140003553:	48 c1 fa 3f          	sar    rdx,0x3f
   140003557:	48 29 d0             	sub    rax,rdx
   14000355a:	48 89 45 78          	mov    QWORD PTR [rbp+0x78],rax
   14000355e:	48 8b 45 78          	mov    rax,QWORD PTR [rbp+0x78]
   140003562:	48 69 c0 07 ca 9a 3b 	imul   rax,rax,0x3b9aca07
   140003569:	48 29 c1             	sub    rcx,rax
   14000356c:	48 89 ca             	mov    rdx,rcx
   14000356f:	48 89 55 78          	mov    QWORD PTR [rbp+0x78],rdx
   140003573:	48 8b 45 58          	mov    rax,QWORD PTR [rbp+0x58]
   140003577:	89 45 38             	mov    DWORD PTR [rbp+0x38],eax
   14000357a:	48 8d 55 38          	lea    rdx,[rbp+0x38]
   14000357e:	48 8d 45 f0          	lea    rax,[rbp-0x10]
   140003582:	48 89 c1             	mov    rcx,rax
   140003585:	e8 f6 14 00 00       	call   140004a80 <_ZNSt13unordered_mapIllSt4hashIlESt8equal_toIlESaISt4pairIKllEEEixEOl>
   14000358a:	8b 10                	mov    edx,DWORD PTR [rax]
   14000358c:	83 c2 01             	add    edx,0x1
   14000358f:	89 10                	mov    DWORD PTR [rax],edx
   140003591:	83 45 74 01          	add    DWORD PTR [rbp+0x74],0x1
   140003595:	48 8b 85 a8 00 00 00 	mov    rax,QWORD PTR [rbp+0xa8]
   14000359c:	48 89 c1             	mov    rcx,rax
   14000359f:	e8 1c 05 00 00       	call   140003ac0 <_ZNKSt6vectorIiSaIiEE4sizeEv>
   1400035a4:	39 45 74             	cmp    DWORD PTR [rbp+0x74],eax
   1400035a7:	0f 9c c0             	setl   al
   1400035aa:	84 c0                	test   al,al
   1400035ac:	0f 85 bf fe ff ff    	jne    140003471 <_ZN8Solution15specialTripletsESt6vectorIiSaIiEE+0xd1>
   1400035b2:	48 8b 45 78          	mov    rax,QWORD PTR [rbp+0x78]
   1400035b6:	89 c3                	mov    ebx,eax
   1400035b8:	48 8d 45 b0          	lea    rax,[rbp-0x50]
   1400035bc:	48 89 c1             	mov    rcx,rax
   1400035bf:	e8 9c 14 00 00       	call   140004a60 <_ZNSt13unordered_mapIllSt4hashIlESt8equal_toIlESaISt4pairIKllEEED1Ev>
   1400035c4:	48 8d 45 f0          	lea    rax,[rbp-0x10]
   1400035c8:	48 89 c1             	mov    rcx,rax
   1400035cb:	e8 90 14 00 00       	call   140004a60 <_ZNSt13unordered_mapIllSt4hashIlESt8equal_toIlESaISt4pairIKllEEED1Ev>
   1400035d0:	89 d8                	mov    eax,ebx
   1400035d2:	eb 26                	jmp    1400035fa <_ZN8Solution15specialTripletsESt6vectorIiSaIiEE+0x25a>
   1400035d4:	48 89 c3             	mov    rbx,rax
   1400035d7:	48 8d 45 b0          	lea    rax,[rbp-0x50]
   1400035db:	48 89 c1             	mov    rcx,rax
   1400035de:	e8 7d 14 00 00       	call   140004a60 <_ZNSt13unordered_mapIllSt4hashIlESt8equal_toIlESaISt4pairIKllEEED1Ev>
   1400035e3:	48 8d 45 f0          	lea    rax,[rbp-0x10]
   1400035e7:	48 89 c1             	mov    rcx,rax
   1400035ea:	e8 71 14 00 00       	call   140004a60 <_ZNSt13unordered_mapIllSt4hashIlESt8equal_toIlESaISt4pairIKllEEED1Ev>
   1400035ef:	48 89 d8             	mov    rax,rbx
   1400035f2:	48 89 c1             	mov    rcx,rax
   1400035f5:	e8 86 f8 ff ff       	call   140002e80 <_Unwind_Resume>
   1400035fa:	48 81 c4 08 01 00 00 	add    rsp,0x108
   140003601:	5b                   	pop    rbx
   140003602:	5d                   	pop    rbp
   140003603:	c3                   	ret
   140003604:	90                   	nop
   140003605:	90                   	nop
   140003606:	90                   	nop
   140003607:	90                   	nop
   140003608:	90                   	nop
   140003609:	90                   	nop
   14000360a:	90                   	nop
   14000360b:	90                   	nop
   14000360c:	90                   	nop
   14000360d:	90                   	nop
   14000360e:	90                   	nop
   14000360f:	90                   	nop

0000000140003610 <_ZN9__gnu_cxx16__aligned_bufferISt4pairIKllEE6_M_ptrEv>:
   140003610:	55                   	push   rbp
   140003611:	48 89 e5             	mov    rbp,rsp
   140003614:	48 83 ec 20          	sub    rsp,0x20
   140003618:	48 89 4d 10          	mov    QWORD PTR [rbp+0x10],rcx
   14000361c:	48 8b 45 10          	mov    rax,QWORD PTR [rbp+0x10]
   140003620:	48 89 c1             	mov    rcx,rax
   140003623:	e8 08 00 00 00       	call   140003630 <_ZN9__gnu_cxx16__aligned_bufferISt4pairIKllEE7_M_addrEv>
   140003628:	48 83 c4 20          	add    rsp,0x20
   14000362c:	5d                   	pop    rbp
   14000362d:	c3                   	ret
   14000362e:	90                   	nop
   14000362f:	90                   	nop

0000000140003630 <_ZN9__gnu_cxx16__aligned_bufferISt4pairIKllEE7_M_addrEv>:
   140003630:	55                   	push   rbp
   140003631:	48 89 e5             	mov    rbp,rsp
   140003634:	48 89 4d 10          	mov    QWORD PTR [rbp+0x10],rcx
   140003638:	48 8b 45 10          	mov    rax,QWORD PTR [rbp+0x10]
   14000363c:	5d                   	pop    rbp
   14000363d:	c3                   	ret
   14000363e:	90                   	nop
   14000363f:	90                   	nop

0000000140003640 <_ZN9__gnu_cxx17__normal_iteratorIPKiSt6vectorIiSaIiEEEC1ERKS2_>:
   140003640:	55                   	push   rbp
   140003641:	48 89 e5             	mov    rbp,rsp
   140003644:	48 89 4d 10          	mov    QWORD PTR [rbp+0x10],rcx
   140003648:	48 89 55 18          	mov    QWORD PTR [rbp+0x18],rdx
   14000364c:	48 8b 45 18          	mov    rax,QWORD PTR [rbp+0x18]
   140003650:	48 8b 10             	mov    rdx,QWORD PTR [rax]
   140003653:	48 8b 45 10          	mov    rax,QWORD PTR [rbp+0x10]
   140003657:	48 89 10             	mov    QWORD PTR [rax],rdx
   14000365a:	90                   	nop
   14000365b:	5d                   	pop    rbp
   14000365c:	c3                   	ret
   14000365d:	90                   	nop
   14000365e:	90                   	nop
   14000365f:	90                   	nop

0000000140003660 <_ZN9__gnu_cxx17__normal_iteratorIPKiSt6vectorIiSaIiEEEppEv>:
   140003660:	55                   	push   rbp
   140003661:	48 89 e5             	mov    rbp,rsp
   140003664:	48 89 4d 10          	mov    QWORD PTR [rbp+0x10],rcx
   140003668:	48 8b 45 10          	mov    rax,QWORD PTR [rbp+0x10]
   14000366c:	48 8b 00             	mov    rax,QWORD PTR [rax]
   14000366f:	48 8d 50 04          	lea    rdx,[rax+0x4]
   140003673:	48 8b 45 10          	mov    rax,QWORD PTR [rbp+0x10]
   140003677:	48 89 10             	mov    QWORD PTR [rax],rdx
   14000367a:	48 8b 45 10          	mov    rax,QWORD PTR [rbp+0x10]
   14000367e:	5d                   	pop    rbp
   14000367f:	c3                   	ret

0000000140003680 <_ZN9__gnu_cxx17__normal_iteratorIPiSt6vectorIiSaIiEEEC1ERKS1_>:
   140003680:	55                   	push   rbp
   140003681:	48 89 e5             	mov    rbp,rsp
   140003684:	48 89 4d 10          	mov    QWORD PTR [rbp+0x10],rcx
   140003688:	48 89 55 18          	mov    QWORD PTR [rbp+0x18],rdx
   14000368c:	48 8b 45 18          	mov    rax,QWORD PTR [rbp+0x18]
   140003690:	48 8b 10             	mov    rdx,QWORD PTR [rax]
   140003693:	48 8b 45 10          	mov    rax,QWORD PTR [rbp+0x10]
   140003697:	48 89 10             	mov    QWORD PTR [rax],rdx
   14000369a:	90                   	nop
   14000369b:	5d                   	pop    rbp
   14000369c:	c3                   	ret
   14000369d:	90                   	nop
   14000369e:	90                   	nop
   14000369f:	90                   	nop

00000001400036a0 <_ZN9__gnu_cxx17__normal_iteratorIPiSt6vectorIiSaIiEEEppEv>:
   1400036a0:	55                   	push   rbp
   1400036a1:	48 89 e5             	mov    rbp,rsp
   1400036a4:	48 89 4d 10          	mov    QWORD PTR [rbp+0x10],rcx
   1400036a8:	48 8b 45 10          	mov    rax,QWORD PTR [rbp+0x10]
   1400036ac:	48 8b 00             	mov    rax,QWORD PTR [rax]
   1400036af:	48 8d 50 04          	lea    rdx,[rax+0x4]
   1400036b3:	48 8b 45 10          	mov    rax,QWORD PTR [rbp+0x10]
   1400036b7:	48 89 10             	mov    QWORD PTR [rax],rdx
   1400036ba:	48 8b 45 10          	mov    rax,QWORD PTR [rbp+0x10]
   1400036be:	5d                   	pop    rbp
   1400036bf:	c3                   	ret

00000001400036c0 <_ZN9__gnu_cxxeqIPKiSt6vectorIiSaIiEEEEbRKNS_17__normal_iteratorIT_T0_EESB_QrqXeqcldtfL0p_4baseEcldtfL0p0_4baseERSt14convertible_toIbEE>:
   1400036c0:	55                   	push   rbp
   1400036c1:	53                   	push   rbx
   1400036c2:	48 83 ec 28          	sub    rsp,0x28
   1400036c6:	48 8d 6c 24 20       	lea    rbp,[rsp+0x20]
   1400036cb:	48 89 4d 20          	mov    QWORD PTR [rbp+0x20],rcx
   1400036cf:	48 89 55 28          	mov    QWORD PTR [rbp+0x28],rdx
   1400036d3:	48 8b 45 20          	mov    rax,QWORD PTR [rbp+0x20]
   1400036d7:	48 89 c1             	mov    rcx,rax
   1400036da:	e8 91 00 00 00       	call   140003770 <_ZNK9__gnu_cxx17__normal_iteratorIPKiSt6vectorIiSaIiEEE4baseEv>
   1400036df:	48 8b 18             	mov    rbx,QWORD PTR [rax]
   1400036e2:	48 8b 45 28          	mov    rax,QWORD PTR [rbp+0x28]
   1400036e6:	48 89 c1             	mov    rcx,rax
   1400036e9:	e8 82 00 00 00       	call   140003770 <_ZNK9__gnu_cxx17__normal_iteratorIPKiSt6vectorIiSaIiEEE4baseEv>
   1400036ee:	48 8b 00             	mov    rax,QWORD PTR [rax]
   1400036f1:	48 39 c3             	cmp    rbx,rax
   1400036f4:	0f 94 c0             	sete   al
   1400036f7:	48 83 c4 28          	add    rsp,0x28
   1400036fb:	5b                   	pop    rbx
   1400036fc:	5d                   	pop    rbp
   1400036fd:	c3                   	ret
   1400036fe:	90                   	nop
   1400036ff:	90                   	nop

0000000140003700 <_ZN9__gnu_cxxeqIPiSt6vectorIiSaIiEEEEbRKNS_17__normal_iteratorIT_T0_EESA_QrqXeqcldtfL0p_4baseEcldtfL0p0_4baseERSt14convertible_toIbEE>:
   140003700:	55                   	push   rbp
   140003701:	53                   	push   rbx
   140003702:	48 83 ec 28          	sub    rsp,0x28
   140003706:	48 8d 6c 24 20       	lea    rbp,[rsp+0x20]
   14000370b:	48 89 4d 20          	mov    QWORD PTR [rbp+0x20],rcx
   14000370f:	48 89 55 28          	mov    QWORD PTR [rbp+0x28],rdx
   140003713:	48 8b 45 20          	mov    rax,QWORD PTR [rbp+0x20]
   140003717:	48 89 c1             	mov    rcx,rax
   14000371a:	e8 81 00 00 00       	call   1400037a0 <_ZNK9__gnu_cxx17__normal_iteratorIPiSt6vectorIiSaIiEEE4baseEv>
   14000371f:	48 8b 18             	mov    rbx,QWORD PTR [rax]
   140003722:	48 8b 45 28          	mov    rax,QWORD PTR [rbp+0x28]
   140003726:	48 89 c1             	mov    rcx,rax
   140003729:	e8 72 00 00 00       	call   1400037a0 <_ZNK9__gnu_cxx17__normal_iteratorIPiSt6vectorIiSaIiEEE4baseEv>
   14000372e:	48 8b 00             	mov    rax,QWORD PTR [rax]
   140003731:	48 39 c3             	cmp    rbx,rax
   140003734:	0f 94 c0             	sete   al
   140003737:	48 83 c4 28          	add    rsp,0x28
   14000373b:	5b                   	pop    rbx
   14000373c:	5d                   	pop    rbp
   14000373d:	c3                   	ret
   14000373e:	90                   	nop
   14000373f:	90                   	nop

0000000140003740 <_ZNK9__gnu_cxx16__aligned_bufferISt4pairIKllEE6_M_ptrEv>:
   140003740:	55                   	push   rbp
   140003741:	48 89 e5             	mov    rbp,rsp
   140003744:	48 83 ec 20          	sub    rsp,0x20
   140003748:	48 89 4d 10          	mov    QWORD PTR [rbp+0x10],rcx
   14000374c:	48 8b 45 10          	mov    rax,QWORD PTR [rbp+0x10]
   140003750:	48 89 c1             	mov    rcx,rax
   140003753:	e8 08 00 00 00       	call   140003760 <_ZNK9__gnu_cxx16__aligned_bufferISt4pairIKllEE7_M_addrEv>
   140003758:	48 83 c4 20          	add    rsp,0x20
   14000375c:	5d                   	pop    rbp
   14000375d:	c3                   	ret
   14000375e:	90                   	nop
   14000375f:	90                   	nop

0000000140003760 <_ZNK9__gnu_cxx16__aligned_bufferISt4pairIKllEE7_M_addrEv>:
   140003760:	55                   	push   rbp
   140003761:	48 89 e5             	mov    rbp,rsp
   140003764:	48 89 4d 10          	mov    QWORD PTR [rbp+0x10],rcx
   140003768:	48 8b 45 10          	mov    rax,QWORD PTR [rbp+0x10]
   14000376c:	5d                   	pop    rbp
   14000376d:	c3                   	ret
   14000376e:	90                   	nop
   14000376f:	90                   	nop

0000000140003770 <_ZNK9__gnu_cxx17__normal_iteratorIPKiSt6vectorIiSaIiEEE4baseEv>:
   140003770:	55                   	push   rbp
   140003771:	48 89 e5             	mov    rbp,rsp
   140003774:	48 89 4d 10          	mov    QWORD PTR [rbp+0x10],rcx
   140003778:	48 8b 45 10          	mov    rax,QWORD PTR [rbp+0x10]
   14000377c:	5d                   	pop    rbp
   14000377d:	c3                   	ret
   14000377e:	90                   	nop
   14000377f:	90                   	nop

0000000140003780 <_ZNK9__gnu_cxx17__normal_iteratorIPKiSt6vectorIiSaIiEEEdeEv>:
   140003780:	55                   	push   rbp
   140003781:	48 89 e5             	mov    rbp,rsp
   140003784:	48 89 4d 10          	mov    QWORD PTR [rbp+0x10],rcx
   140003788:	48 8b 45 10          	mov    rax,QWORD PTR [rbp+0x10]
   14000378c:	48 8b 00             	mov    rax,QWORD PTR [rax]
   14000378f:	5d                   	pop    rbp
   140003790:	c3                   	ret
   140003791:	90                   	nop
   140003792:	90                   	nop
   140003793:	90                   	nop
   140003794:	90                   	nop
   140003795:	90                   	nop
   140003796:	90                   	nop
   140003797:	90                   	nop
   140003798:	90                   	nop
   140003799:	90                   	nop
   14000379a:	90                   	nop
   14000379b:	90                   	nop
   14000379c:	90                   	nop
   14000379d:	90                   	nop
   14000379e:	90                   	nop
   14000379f:	90                   	nop

00000001400037a0 <_ZNK9__gnu_cxx17__normal_iteratorIPiSt6vectorIiSaIiEEE4baseEv>:
   1400037a0:	55                   	push   rbp
   1400037a1:	48 89 e5             	mov    rbp,rsp
   1400037a4:	48 89 4d 10          	mov    QWORD PTR [rbp+0x10],rcx
   1400037a8:	48 8b 45 10          	mov    rax,QWORD PTR [rbp+0x10]
   1400037ac:	5d                   	pop    rbp
   1400037ad:	c3                   	ret
   1400037ae:	90                   	nop
   1400037af:	90                   	nop

00000001400037b0 <_ZNK9__gnu_cxx17__normal_iteratorIPiSt6vectorIiSaIiEEEdeEv>:
   1400037b0:	55                   	push   rbp
   1400037b1:	48 89 e5             	mov    rbp,rsp
   1400037b4:	48 89 4d 10          	mov    QWORD PTR [rbp+0x10],rcx
   1400037b8:	48 8b 45 10          	mov    rax,QWORD PTR [rbp+0x10]
   1400037bc:	48 8b 00             	mov    rax,QWORD PTR [rax]
   1400037bf:	5d                   	pop    rbp
   1400037c0:	c3                   	ret
   1400037c1:	90                   	nop
   1400037c2:	90                   	nop
   1400037c3:	90                   	nop
   1400037c4:	90                   	nop
   1400037c5:	90                   	nop
   1400037c6:	90                   	nop
   1400037c7:	90                   	nop
   1400037c8:	90                   	nop
   1400037c9:	90                   	nop
   1400037ca:	90                   	nop
   1400037cb:	90                   	nop
   1400037cc:	90                   	nop
   1400037cd:	90                   	nop
   1400037ce:	90                   	nop
   1400037cf:	90                   	nop

00000001400037d0 <_ZNKSt10_HashtableIlSt4pairIKllESaIS2_ENSt8__detail10_Select1stESt8equal_toIlESt4hashIlENS4_18_Mod_range_hashingENS4_20_Default_ranged_hashENS4_20_Prime_rehash_policyENS4_17_Hashtable_traitsILb0ELb0ELb1EEEE12_M_find_nodeEyRS1_y>:
   1400037d0:	55                   	push   rbp
   1400037d1:	48 89 e5             	mov    rbp,rsp
   1400037d4:	48 83 ec 30          	sub    rsp,0x30
   1400037d8:	48 89 4d 10          	mov    QWORD PTR [rbp+0x10],rcx
   1400037dc:	48 89 55 18          	mov    QWORD PTR [rbp+0x18],rdx
   1400037e0:	4c 89 45 20          	mov    QWORD PTR [rbp+0x20],r8
   1400037e4:	4c 89 4d 28          	mov    QWORD PTR [rbp+0x28],r9
   1400037e8:	4c 8b 45 28          	mov    r8,QWORD PTR [rbp+0x28]
   1400037ec:	48 8b 4d 20          	mov    rcx,QWORD PTR [rbp+0x20]
   1400037f0:	48 8b 55 18          	mov    rdx,QWORD PTR [rbp+0x18]
   1400037f4:	48 8b 45 10          	mov    rax,QWORD PTR [rbp+0x10]
   1400037f8:	4d 89 c1             	mov    r9,r8
   1400037fb:	49 89 c8             	mov    r8,rcx
   1400037fe:	48 89 c1             	mov    rcx,rax
   140003801:	e8 aa 00 00 00       	call   1400038b0 <_ZNKSt10_HashtableIlSt4pairIKllESaIS2_ENSt8__detail10_Select1stESt8equal_toIlESt4hashIlENS4_18_Mod_range_hashingENS4_20_Default_ranged_hashENS4_20_Prime_rehash_policyENS4_17_Hashtable_traitsILb0ELb0ELb1EEEE19_M_find_before_nodeEyRS1_y>
   140003806:	48 89 45 f8          	mov    QWORD PTR [rbp-0x8],rax
   14000380a:	48 83 7d f8 00       	cmp    QWORD PTR [rbp-0x8],0x0
   14000380f:	74 09                	je     14000381a <_ZNKSt10_HashtableIlSt4pairIKllESaIS2_ENSt8__detail10_Select1stESt8equal_toIlESt4hashIlENS4_18_Mod_range_hashingENS4_20_Default_ranged_hashENS4_20_Prime_rehash_policyENS4_17_Hashtable_traitsILb0ELb0ELb1EEEE12_M_find_nodeEyRS1_y+0x4a>
   140003811:	48 8b 45 f8          	mov    rax,QWORD PTR [rbp-0x8]
   140003815:	48 8b 00             	mov    rax,QWORD PTR [rax]
   140003818:	eb 05                	jmp    14000381f <_ZNKSt10_HashtableIlSt4pairIKllESaIS2_ENSt8__detail10_Select1stESt8equal_toIlESt4hashIlENS4_18_Mod_range_hashingENS4_20_Default_ranged_hashENS4_20_Prime_rehash_policyENS4_17_Hashtable_traitsILb0ELb0ELb1EEEE12_M_find_nodeEyRS1_y+0x4f>
   14000381a:	b8 00 00 00 00       	mov    eax,0x0
   14000381f:	48 83 c4 30          	add    rsp,0x30
   140003823:	5d                   	pop    rbp
   140003824:	c3                   	ret
   140003825:	90                   	nop
   140003826:	90                   	nop
   140003827:	90                   	nop
   140003828:	90                   	nop
   140003829:	90                   	nop
   14000382a:	90                   	nop
   14000382b:	90                   	nop
   14000382c:	90                   	nop
   14000382d:	90                   	nop
   14000382e:	90                   	nop
   14000382f:	90                   	nop

0000000140003830 <_ZNKSt10_HashtableIlSt4pairIKllESaIS2_ENSt8__detail10_Select1stESt8equal_toIlESt4hashIlENS4_18_Mod_range_hashingENS4_20_Default_ranged_hashENS4_20_Prime_rehash_policyENS4_17_Hashtable_traitsILb0ELb0ELb1EEEE15_M_bucket_indexERKNS4_16_Hash_node_valueIS2_Lb0EEE>:
   140003830:	55                   	push   rbp
   140003831:	48 89 e5             	mov    rbp,rsp
   140003834:	48 83 ec 20          	sub    rsp,0x20
   140003838:	48 89 4d 10          	mov    QWORD PTR [rbp+0x10],rcx
   14000383c:	48 89 55 18          	mov    QWORD PTR [rbp+0x18],rdx
   140003840:	48 8b 45 10          	mov    rax,QWORD PTR [rbp+0x10]
   140003844:	48 8b 48 08          	mov    rcx,QWORD PTR [rax+0x8]
   140003848:	48 8b 55 18          	mov    rdx,QWORD PTR [rbp+0x18]
   14000384c:	48 8b 45 10          	mov    rax,QWORD PTR [rbp+0x10]
   140003850:	49 89 c8             	mov    r8,rcx
   140003853:	48 89 c1             	mov    rcx,rax
   140003856:	e8 a5 03 00 00       	call   140003c00 <_ZNKSt8__detail15_Hash_code_baseIlSt4pairIKllENS_10_Select1stESt4hashIlENS_18_Mod_range_hashingENS_20_Default_ranged_hashELb0EE15_M_bucket_indexERKNS_16_Hash_node_valueIS3_Lb0EEEy>
   14000385b:	48 83 c4 20          	add    rsp,0x20
   14000385f:	5d                   	pop    rbp
   140003860:	c3                   	ret
   140003861:	90                   	nop
   140003862:	90                   	nop
   140003863:	90                   	nop
   140003864:	90                   	nop
   140003865:	90                   	nop
   140003866:	90                   	nop
   140003867:	90                   	nop
   140003868:	90                   	nop
   140003869:	90                   	nop
   14000386a:	90                   	nop
   14000386b:	90                   	nop
   14000386c:	90                   	nop
   14000386d:	90                   	nop
   14000386e:	90                   	nop
   14000386f:	90                   	nop

0000000140003870 <_ZNKSt10_HashtableIlSt4pairIKllESaIS2_ENSt8__detail10_Select1stESt8equal_toIlESt4hashIlENS4_18_Mod_range_hashingENS4_20_Default_ranged_hashENS4_20_Prime_rehash_policyENS4_17_Hashtable_traitsILb0ELb0ELb1EEEE15_M_bucket_indexEy>:
   140003870:	55                   	push   rbp
   140003871:	48 89 e5             	mov    rbp,rsp
   140003874:	48 83 ec 20          	sub    rsp,0x20
   140003878:	48 89 4d 10          	mov    QWORD PTR [rbp+0x10],rcx
   14000387c:	48 89 55 18          	mov    QWORD PTR [rbp+0x18],rdx
   140003880:	48 8b 45 10          	mov    rax,QWORD PTR [rbp+0x10]
   140003884:	48 8b 48 08          	mov    rcx,QWORD PTR [rax+0x8]
   140003888:	48 8b 55 18          	mov    rdx,QWORD PTR [rbp+0x18]
   14000388c:	48 8b 45 10          	mov    rax,QWORD PTR [rbp+0x10]
   140003890:	49 89 c8             	mov    r8,rcx
   140003893:	48 89 c1             	mov    rcx,rax
   140003896:	e8 d5 03 00 00       	call   140003c70 <_ZNKSt8__detail15_Hash_code_baseIlSt4pairIKllENS_10_Select1stESt4hashIlENS_18_Mod_range_hashingENS_20_Default_ranged_hashELb0EE15_M_bucket_indexEyy>
   14000389b:	48 83 c4 20          	add    rsp,0x20
   14000389f:	5d                   	pop    rbp
   1400038a0:	c3                   	ret
   1400038a1:	90                   	nop
   1400038a2:	90                   	nop
   1400038a3:	90                   	nop
   1400038a4:	90                   	nop
   1400038a5:	90                   	nop
   1400038a6:	90                   	nop
   1400038a7:	90                   	nop
   1400038a8:	90                   	nop
   1400038a9:	90                   	nop
   1400038aa:	90                   	nop
   1400038ab:	90                   	nop
   1400038ac:	90                   	nop
   1400038ad:	90                   	nop
   1400038ae:	90                   	nop
   1400038af:	90                   	nop

00000001400038b0 <_ZNKSt10_HashtableIlSt4pairIKllESaIS2_ENSt8__detail10_Select1stESt8equal_toIlESt4hashIlENS4_18_Mod_range_hashingENS4_20_Default_ranged_hashENS4_20_Prime_rehash_policyENS4_17_Hashtable_traitsILb0ELb0ELb1EEEE19_M_find_before_nodeEyRS1_y>:
   1400038b0:	55                   	push   rbp
   1400038b1:	48 89 e5             	mov    rbp,rsp
   1400038b4:	48 83 ec 30          	sub    rsp,0x30
   1400038b8:	48 89 4d 10          	mov    QWORD PTR [rbp+0x10],rcx
   1400038bc:	48 89 55 18          	mov    QWORD PTR [rbp+0x18],rdx
   1400038c0:	4c 89 45 20          	mov    QWORD PTR [rbp+0x20],r8
   1400038c4:	4c 89 4d 28          	mov    QWORD PTR [rbp+0x28],r9
   1400038c8:	48 8b 45 10          	mov    rax,QWORD PTR [rbp+0x10]
   1400038cc:	48 8b 00             	mov    rax,QWORD PTR [rax]
   1400038cf:	48 8b 55 18          	mov    rdx,QWORD PTR [rbp+0x18]
   1400038d3:	48 c1 e2 03          	shl    rdx,0x3
   1400038d7:	48 01 d0             	add    rax,rdx
   1400038da:	48 8b 00             	mov    rax,QWORD PTR [rax]
   1400038dd:	48 89 45 f8          	mov    QWORD PTR [rbp-0x8],rax
   1400038e1:	48 83 7d f8 00       	cmp    QWORD PTR [rbp-0x8],0x0
   1400038e6:	75 0a                	jne    1400038f2 <_ZNKSt10_HashtableIlSt4pairIKllESaIS2_ENSt8__detail10_Select1stESt8equal_toIlESt4hashIlENS4_18_Mod_range_hashingENS4_20_Default_ranged_hashENS4_20_Prime_rehash_policyENS4_17_Hashtable_traitsILb0ELb0ELb1EEEE19_M_find_before_nodeEyRS1_y+0x42>
   1400038e8:	b8 00 00 00 00       	mov    eax,0x0
   1400038ed:	e9 98 00 00 00       	jmp    14000398a <_ZNKSt10_HashtableIlSt4pairIKllESaIS2_ENSt8__detail10_Select1stESt8equal_toIlESt4hashIlENS4_18_Mod_range_hashingENS4_20_Default_ranged_hashENS4_20_Prime_rehash_policyENS4_17_Hashtable_traitsILb0ELb0ELb1EEEE19_M_find_before_nodeEyRS1_y+0xda>
   1400038f2:	48 8b 45 f8          	mov    rax,QWORD PTR [rbp-0x8]
   1400038f6:	48 8b 00             	mov    rax,QWORD PTR [rax]
   1400038f9:	48 89 45 f0          	mov    QWORD PTR [rbp-0x10],rax
   1400038fd:	48 8b 45 f0          	mov    rax,QWORD PTR [rbp-0x10]
   140003901:	4c 8d 40 08          	lea    r8,[rax+0x8]
   140003905:	48 8b 4d 28          	mov    rcx,QWORD PTR [rbp+0x28]
   140003909:	48 8b 55 20          	mov    rdx,QWORD PTR [rbp+0x20]
   14000390d:	48 8b 45 10          	mov    rax,QWORD PTR [rbp+0x10]
   140003911:	4d 89 c1             	mov    r9,r8
   140003914:	49 89 c8             	mov    r8,rcx
   140003917:	48 89 c1             	mov    rcx,rax
   14000391a:	e8 41 04 00 00       	call   140003d60 <_ZNKSt8__detail15_Hashtable_baseIlSt4pairIKllENS_10_Select1stESt8equal_toIlESt4hashIlENS_18_Mod_range_hashingENS_20_Default_ranged_hashENS_17_Hashtable_traitsILb0ELb0ELb1EEEE9_M_equalsERS2_yRKNS_16_Hash_node_valueIS3_Lb0EEE>
   14000391f:	84 c0                	test   al,al
   140003921:	74 06                	je     140003929 <_ZNKSt10_HashtableIlSt4pairIKllESaIS2_ENSt8__detail10_Select1stESt8equal_toIlESt4hashIlENS4_18_Mod_range_hashingENS4_20_Default_ranged_hashENS4_20_Prime_rehash_policyENS4_17_Hashtable_traitsILb0ELb0ELb1EEEE19_M_find_before_nodeEyRS1_y+0x79>
   140003923:	48 8b 45 f8          	mov    rax,QWORD PTR [rbp-0x8]
   140003927:	eb 61                	jmp    14000398a <_ZNKSt10_HashtableIlSt4pairIKllESaIS2_ENSt8__detail10_Select1stESt8equal_toIlESt4hashIlENS4_18_Mod_range_hashingENS4_20_Default_ranged_hashENS4_20_Prime_rehash_policyENS4_17_Hashtable_traitsILb0ELb0ELb1EEEE19_M_find_before_nodeEyRS1_y+0xda>
   140003929:	48 8b 45 f0          	mov    rax,QWORD PTR [rbp-0x10]
   14000392d:	48 8b 00             	mov    rax,QWORD PTR [rax]
   140003930:	48 85 c0             	test   rax,rax
   140003933:	74 22                	je     140003957 <_ZNKSt10_HashtableIlSt4pairIKllESaIS2_ENSt8__detail10_Select1stESt8equal_toIlESt4hashIlENS4_18_Mod_range_hashingENS4_20_Default_ranged_hashENS4_20_Prime_rehash_policyENS4_17_Hashtable_traitsILb0ELb0ELb1EEEE19_M_find_before_nodeEyRS1_y+0xa7>
   140003935:	48 8b 45 f0          	mov    rax,QWORD PTR [rbp-0x10]
   140003939:	48 89 c1             	mov    rcx,rax
   14000393c:	e8 df 01 00 00       	call   140003b20 <_ZNKSt8__detail10_Hash_nodeISt4pairIKllELb0EE7_M_nextEv>
   140003941:	48 8d 50 08          	lea    rdx,[rax+0x8]
   140003945:	48 8b 45 10          	mov    rax,QWORD PTR [rbp+0x10]
   140003949:	48 89 c1             	mov    rcx,rax
   14000394c:	e8 df fe ff ff       	call   140003830 <_ZNKSt10_HashtableIlSt4pairIKllESaIS2_ENSt8__detail10_Select1stESt8equal_toIlESt4hashIlENS4_18_Mod_range_hashingENS4_20_Default_ranged_hashENS4_20_Prime_rehash_policyENS4_17_Hashtable_traitsILb0ELb0ELb1EEEE15_M_bucket_indexERKNS4_16_Hash_node_valueIS2_Lb0EEE>
   140003951:	48 39 45 18          	cmp    QWORD PTR [rbp+0x18],rax
   140003955:	74 07                	je     14000395e <_ZNKSt10_HashtableIlSt4pairIKllESaIS2_ENSt8__detail10_Select1stESt8equal_toIlESt4hashIlENS4_18_Mod_range_hashingENS4_20_Default_ranged_hashENS4_20_Prime_rehash_policyENS4_17_Hashtable_traitsILb0ELb0ELb1EEEE19_M_find_before_nodeEyRS1_y+0xae>
   140003957:	b8 01 00 00 00       	mov    eax,0x1
   14000395c:	eb 05                	jmp    140003963 <_ZNKSt10_HashtableIlSt4pairIKllESaIS2_ENSt8__detail10_Select1stESt8equal_toIlESt4hashIlENS4_18_Mod_range_hashingENS4_20_Default_ranged_hashENS4_20_Prime_rehash_policyENS4_17_Hashtable_traitsILb0ELb0ELb1EEEE19_M_find_before_nodeEyRS1_y+0xb3>
   14000395e:	b8 00 00 00 00       	mov    eax,0x0
   140003963:	84 c0                	test   al,al
   140003965:	75 1d                	jne    140003984 <_ZNKSt10_HashtableIlSt4pairIKllESaIS2_ENSt8__detail10_Select1stESt8equal_toIlESt4hashIlENS4_18_Mod_range_hashingENS4_20_Default_ranged_hashENS4_20_Prime_rehash_policyENS4_17_Hashtable_traitsILb0ELb0ELb1EEEE19_M_find_before_nodeEyRS1_y+0xd4>
   140003967:	48 8b 45 f0          	mov    rax,QWORD PTR [rbp-0x10]
   14000396b:	48 89 45 f8          	mov    QWORD PTR [rbp-0x8],rax
   14000396f:	48 8b 45 f0          	mov    rax,QWORD PTR [rbp-0x10]
   140003973:	48 89 c1             	mov    rcx,rax
   140003976:	e8 a5 01 00 00       	call   140003b20 <_ZNKSt8__detail10_Hash_nodeISt4pairIKllELb0EE7_M_nextEv>
   14000397b:	48 89 45 f0          	mov    QWORD PTR [rbp-0x10],rax
   14000397f:	e9 79 ff ff ff       	jmp    1400038fd <_ZNKSt10_HashtableIlSt4pairIKllESaIS2_ENSt8__detail10_Select1stESt8equal_toIlESt4hashIlENS4_18_Mod_range_hashingENS4_20_Default_ranged_hashENS4_20_Prime_rehash_policyENS4_17_Hashtable_traitsILb0ELb0ELb1EEEE19_M_find_before_nodeEyRS1_y+0x4d>
   140003984:	90                   	nop
   140003985:	b8 00 00 00 00       	mov    eax,0x0
   14000398a:	48 83 c4 30          	add    rsp,0x30
   14000398e:	5d                   	pop    rbp
   14000398f:	c3                   	ret

0000000140003990 <_ZNKSt10_HashtableIlSt4pairIKllESaIS2_ENSt8__detail10_Select1stESt8equal_toIlESt4hashIlENS4_18_Mod_range_hashingENS4_20_Default_ranged_hashENS4_20_Prime_rehash_policyENS4_17_Hashtable_traitsILb0ELb0ELb1EEEE21_M_uses_single_bucketEPPNS4_15_Hash_node_baseE>:
   140003990:	55                   	push   rbp
   140003991:	48 89 e5             	mov    rbp,rsp
   140003994:	48 89 4d 10          	mov    QWORD PTR [rbp+0x10],rcx
   140003998:	48 89 55 18          	mov    QWORD PTR [rbp+0x18],rdx
   14000399c:	48 8b 45 10          	mov    rax,QWORD PTR [rbp+0x10]
   1400039a0:	48 83 c0 30          	add    rax,0x30
   1400039a4:	48 39 45 18          	cmp    QWORD PTR [rbp+0x18],rax
   1400039a8:	0f 94 c0             	sete   al
   1400039ab:	0f b6 c0             	movzx  eax,al
   1400039ae:	85 c0                	test   eax,eax
   1400039b0:	0f 95 c0             	setne  al
   1400039b3:	5d                   	pop    rbp
   1400039b4:	c3                   	ret
   1400039b5:	90                   	nop
   1400039b6:	90                   	nop
   1400039b7:	90                   	nop
   1400039b8:	90                   	nop
   1400039b9:	90                   	nop
   1400039ba:	90                   	nop
   1400039bb:	90                   	nop
   1400039bc:	90                   	nop
   1400039bd:	90                   	nop
   1400039be:	90                   	nop
   1400039bf:	90                   	nop

00000001400039c0 <_ZNKSt10_HashtableIlSt4pairIKllESaIS2_ENSt8__detail10_Select1stESt8equal_toIlESt4hashIlENS4_18_Mod_range_hashingENS4_20_Default_ranged_hashENS4_20_Prime_rehash_policyENS4_17_Hashtable_traitsILb0ELb0ELb1EEEE8_M_beginEv>:
   1400039c0:	55                   	push   rbp
   1400039c1:	48 89 e5             	mov    rbp,rsp
   1400039c4:	48 89 4d 10          	mov    QWORD PTR [rbp+0x10],rcx
   1400039c8:	48 8b 45 10          	mov    rax,QWORD PTR [rbp+0x10]
   1400039cc:	48 8b 40 10          	mov    rax,QWORD PTR [rax+0x10]
   1400039d0:	5d                   	pop    rbp
   1400039d1:	c3                   	ret
   1400039d2:	90                   	nop
   1400039d3:	90                   	nop
   1400039d4:	90                   	nop
   1400039d5:	90                   	nop
   1400039d6:	90                   	nop
   1400039d7:	90                   	nop
   1400039d8:	90                   	nop
   1400039d9:	90                   	nop
   1400039da:	90                   	nop
   1400039db:	90                   	nop
   1400039dc:	90                   	nop
   1400039dd:	90                   	nop
   1400039de:	90                   	nop
   1400039df:	90                   	nop

00000001400039e0 <_ZNKSt12_Vector_baseIiSaIiEE19_M_get_Tp_allocatorEv>:
   1400039e0:	55                   	push   rbp
   1400039e1:	48 89 e5             	mov    rbp,rsp
   1400039e4:	48 89 4d 10          	mov    QWORD PTR [rbp+0x10],rcx
   1400039e8:	48 8b 45 10          	mov    rax,QWORD PTR [rbp+0x10]
   1400039ec:	5d                   	pop    rbp
   1400039ed:	c3                   	ret
   1400039ee:	90                   	nop
   1400039ef:	90                   	nop

00000001400039f0 <_ZNKSt16initializer_listIiE3endEv>:
   1400039f0:	55                   	push   rbp
   1400039f1:	53                   	push   rbx
   1400039f2:	48 83 ec 28          	sub    rsp,0x28
   1400039f6:	48 8d 6c 24 20       	lea    rbp,[rsp+0x20]
   1400039fb:	48 89 4d 20          	mov    QWORD PTR [rbp+0x20],rcx
   1400039ff:	48 8b 45 20          	mov    rax,QWORD PTR [rbp+0x20]
   140003a03:	48 89 c1             	mov    rcx,rax
   140003a06:	e8 45 00 00 00       	call   140003a50 <_ZNKSt16initializer_listIiE5beginEv>
   140003a0b:	48 89 c3             	mov    rbx,rax
   140003a0e:	48 8b 45 20          	mov    rax,QWORD PTR [rbp+0x20]
   140003a12:	48 89 c1             	mov    rcx,rax
   140003a15:	e8 16 00 00 00       	call   140003a30 <_ZNKSt16initializer_listIiE4sizeEv>
   140003a1a:	48 c1 e0 02          	shl    rax,0x2
   140003a1e:	48 01 d8             	add    rax,rbx
   140003a21:	48 83 c4 28          	add    rsp,0x28
   140003a25:	5b                   	pop    rbx
   140003a26:	5d                   	pop    rbp
   140003a27:	c3                   	ret
   140003a28:	90                   	nop
   140003a29:	90                   	nop
   140003a2a:	90                   	nop
   140003a2b:	90                   	nop
   140003a2c:	90                   	nop
   140003a2d:	90                   	nop
   140003a2e:	90                   	nop
   140003a2f:	90                   	nop

0000000140003a30 <_ZNKSt16initializer_listIiE4sizeEv>:
   140003a30:	55                   	push   rbp
   140003a31:	48 89 e5             	mov    rbp,rsp
   140003a34:	48 89 4d 10          	mov    QWORD PTR [rbp+0x10],rcx
   140003a38:	48 8b 45 10          	mov    rax,QWORD PTR [rbp+0x10]
   140003a3c:	48 8b 40 08          	mov    rax,QWORD PTR [rax+0x8]
   140003a40:	5d                   	pop    rbp
   140003a41:	c3                   	ret
   140003a42:	90                   	nop
   140003a43:	90                   	nop
   140003a44:	90                   	nop
   140003a45:	90                   	nop
   140003a46:	90                   	nop
   140003a47:	90                   	nop
   140003a48:	90                   	nop
   140003a49:	90                   	nop
   140003a4a:	90                   	nop
   140003a4b:	90                   	nop
   140003a4c:	90                   	nop
   140003a4d:	90                   	nop
   140003a4e:	90                   	nop
   140003a4f:	90                   	nop

0000000140003a50 <_ZNKSt16initializer_listIiE5beginEv>:
   140003a50:	55                   	push   rbp
   140003a51:	48 89 e5             	mov    rbp,rsp
   140003a54:	48 89 4d 10          	mov    QWORD PTR [rbp+0x10],rcx
   140003a58:	48 8b 45 10          	mov    rax,QWORD PTR [rbp+0x10]
   140003a5c:	48 8b 00             	mov    rax,QWORD PTR [rax]
   140003a5f:	5d                   	pop    rbp
   140003a60:	c3                   	ret
   140003a61:	90                   	nop
   140003a62:	90                   	nop
   140003a63:	90                   	nop
   140003a64:	90                   	nop
   140003a65:	90                   	nop
   140003a66:	90                   	nop
   140003a67:	90                   	nop
   140003a68:	90                   	nop
   140003a69:	90                   	nop
   140003a6a:	90                   	nop
   140003a6b:	90                   	nop
   140003a6c:	90                   	nop
   140003a6d:	90                   	nop
   140003a6e:	90                   	nop
   140003a6f:	90                   	nop

0000000140003a70 <_ZNKSt4hashIlEclEl>:
   140003a70:	55                   	push   rbp
   140003a71:	48 89 e5             	mov    rbp,rsp
   140003a74:	48 89 4d 10          	mov    QWORD PTR [rbp+0x10],rcx
   140003a78:	89 55 18             	mov    DWORD PTR [rbp+0x18],edx
   140003a7b:	8b 45 18             	mov    eax,DWORD PTR [rbp+0x18]
   140003a7e:	48 98                	cdqe
   140003a80:	5d                   	pop    rbp
   140003a81:	c3                   	ret
   140003a82:	90                   	nop
   140003a83:	90                   	nop
   140003a84:	90                   	nop
   140003a85:	90                   	nop
   140003a86:	90                   	nop
   140003a87:	90                   	nop
   140003a88:	90                   	nop
   140003a89:	90                   	nop
   140003a8a:	90                   	nop
   140003a8b:	90                   	nop
   140003a8c:	90                   	nop
   140003a8d:	90                   	nop
   140003a8e:	90                   	nop
   140003a8f:	90                   	nop

0000000140003a90 <_ZNKSt6vectorIiSaIiEE3endEv>:
   140003a90:	55                   	push   rbp
   140003a91:	48 89 e5             	mov    rbp,rsp
   140003a94:	48 83 ec 30          	sub    rsp,0x30
   140003a98:	48 89 4d 10          	mov    QWORD PTR [rbp+0x10],rcx
   140003a9c:	48 8b 45 10          	mov    rax,QWORD PTR [rbp+0x10]
   140003aa0:	48 8d 50 08          	lea    rdx,[rax+0x8]
   140003aa4:	48 8d 45 f8          	lea    rax,[rbp-0x8]
   140003aa8:	48 89 c1             	mov    rcx,rax
   140003aab:	e8 90 fb ff ff       	call   140003640 <_ZN9__gnu_cxx17__normal_iteratorIPKiSt6vectorIiSaIiEEEC1ERKS2_>
   140003ab0:	48 8b 45 f8          	mov    rax,QWORD PTR [rbp-0x8]
   140003ab4:	48 83 c4 30          	add    rsp,0x30
   140003ab8:	5d                   	pop    rbp
   140003ab9:	c3                   	ret
   140003aba:	90                   	nop
   140003abb:	90                   	nop
   140003abc:	90                   	nop
   140003abd:	90                   	nop
   140003abe:	90                   	nop
   140003abf:	90                   	nop

0000000140003ac0 <_ZNKSt6vectorIiSaIiEE4sizeEv>:
   140003ac0:	55                   	push   rbp
   140003ac1:	48 89 e5             	mov    rbp,rsp
   140003ac4:	48 89 4d 10          	mov    QWORD PTR [rbp+0x10],rcx
   140003ac8:	48 8b 45 10          	mov    rax,QWORD PTR [rbp+0x10]
   140003acc:	48 8b 50 08          	mov    rdx,QWORD PTR [rax+0x8]
   140003ad0:	48 8b 45 10          	mov    rax,QWORD PTR [rbp+0x10]
   140003ad4:	48 8b 00             	mov    rax,QWORD PTR [rax]
   140003ad7:	48 29 c2             	sub    rdx,rax
   140003ada:	48 89 d0             	mov    rax,rdx
   140003add:	48 c1 f8 02          	sar    rax,0x2
   140003ae1:	5d                   	pop    rbp
   140003ae2:	c3                   	ret
   140003ae3:	90                   	nop
   140003ae4:	90                   	nop
   140003ae5:	90                   	nop
   140003ae6:	90                   	nop
   140003ae7:	90                   	nop
   140003ae8:	90                   	nop
   140003ae9:	90                   	nop
   140003aea:	90                   	nop
   140003aeb:	90                   	nop
   140003aec:	90                   	nop
   140003aed:	90                   	nop
   140003aee:	90                   	nop
   140003aef:	90                   	nop

0000000140003af0 <_ZNKSt6vectorIiSaIiEE5beginEv>:
   140003af0:	55                   	push   rbp
   140003af1:	48 89 e5             	mov    rbp,rsp
   140003af4:	48 83 ec 30          	sub    rsp,0x30
   140003af8:	48 89 4d 10          	mov    QWORD PTR [rbp+0x10],rcx
   140003afc:	48 8b 55 10          	mov    rdx,QWORD PTR [rbp+0x10]
   140003b00:	48 8d 45 f8          	lea    rax,[rbp-0x8]
   140003b04:	48 89 c1             	mov    rcx,rax
   140003b07:	e8 34 fb ff ff       	call   140003640 <_ZN9__gnu_cxx17__normal_iteratorIPKiSt6vectorIiSaIiEEEC1ERKS2_>
   140003b0c:	48 8b 45 f8          	mov    rax,QWORD PTR [rbp-0x8]
   140003b10:	48 83 c4 30          	add    rsp,0x30
   140003b14:	5d                   	pop    rbp
   140003b15:	c3                   	ret
   140003b16:	90                   	nop
   140003b17:	90                   	nop
   140003b18:	90                   	nop
   140003b19:	90                   	nop
   140003b1a:	90                   	nop
   140003b1b:	90                   	nop
   140003b1c:	90                   	nop
   140003b1d:	90                   	nop
   140003b1e:	90                   	nop
   140003b1f:	90                   	nop

0000000140003b20 <_ZNKSt8__detail10_Hash_nodeISt4pairIKllELb0EE7_M_nextEv>:
   140003b20:	55                   	push   rbp
   140003b21:	48 89 e5             	mov    rbp,rsp
   140003b24:	48 89 4d 10          	mov    QWORD PTR [rbp+0x10],rcx
   140003b28:	48 8b 45 10          	mov    rax,QWORD PTR [rbp+0x10]
   140003b2c:	48 8b 00             	mov    rax,QWORD PTR [rax]
   140003b2f:	5d                   	pop    rbp
   140003b30:	c3                   	ret
   140003b31:	90                   	nop
   140003b32:	90                   	nop
   140003b33:	90                   	nop
   140003b34:	90                   	nop
   140003b35:	90                   	nop
   140003b36:	90                   	nop
   140003b37:	90                   	nop
   140003b38:	90                   	nop
   140003b39:	90                   	nop
   140003b3a:	90                   	nop
   140003b3b:	90                   	nop
   140003b3c:	90                   	nop
   140003b3d:	90                   	nop
   140003b3e:	90                   	nop
   140003b3f:	90                   	nop

0000000140003b40 <_ZNKSt8__detail10_Select1stclIRKSt4pairIKllEEEONS0_10__1st_typeIT_E4typeEOS8_>:
   140003b40:	55                   	push   rbp
   140003b41:	48 89 e5             	mov    rbp,rsp
   140003b44:	48 83 ec 20          	sub    rsp,0x20
   140003b48:	48 89 4d 10          	mov    QWORD PTR [rbp+0x10],rcx
   140003b4c:	48 89 55 18          	mov    QWORD PTR [rbp+0x18],rdx
   140003b50:	48 8b 45 18          	mov    rax,QWORD PTR [rbp+0x18]
   140003b54:	48 89 c1             	mov    rcx,rax
   140003b57:	e8 04 28 00 00       	call   140006360 <_ZSt7forwardIRKSt4pairIKllEEOT_RNSt16remove_referenceIS5_E4typeE>
   140003b5c:	48 83 c4 20          	add    rsp,0x20
   140003b60:	5d                   	pop    rbp
   140003b61:	c3                   	ret
   140003b62:	90                   	nop
   140003b63:	90                   	nop
   140003b64:	90                   	nop
   140003b65:	90                   	nop
   140003b66:	90                   	nop
   140003b67:	90                   	nop
   140003b68:	90                   	nop
   140003b69:	90                   	nop
   140003b6a:	90                   	nop
   140003b6b:	90                   	nop
   140003b6c:	90                   	nop
   140003b6d:	90                   	nop
   140003b6e:	90                   	nop
   140003b6f:	90                   	nop

0000000140003b70 <_ZNKSt8__detail14_Node_iteratorISt4pairIKllELb0ELb0EEptEv>:
   140003b70:	55                   	push   rbp
   140003b71:	48 89 e5             	mov    rbp,rsp
   140003b74:	48 83 ec 30          	sub    rsp,0x30
   140003b78:	48 89 4d 10          	mov    QWORD PTR [rbp+0x10],rcx
   140003b7c:	48 8b 45 10          	mov    rax,QWORD PTR [rbp+0x10]
   140003b80:	48 8b 00             	mov    rax,QWORD PTR [rax]
   140003b83:	48 83 c0 08          	add    rax,0x8
   140003b87:	48 89 45 f8          	mov    QWORD PTR [rbp-0x8],rax
   140003b8b:	48 8b 45 f8          	mov    rax,QWORD PTR [rbp-0x8]
   140003b8f:	48 89 c1             	mov    rcx,rax
   140003b92:	e8 79 fa ff ff       	call   140003610 <_ZN9__gnu_cxx16__aligned_bufferISt4pairIKllEE6_M_ptrEv>
   140003b97:	90                   	nop
   140003b98:	48 83 c4 30          	add    rsp,0x30
   140003b9c:	5d                   	pop    rbp
   140003b9d:	c3                   	ret
   140003b9e:	90                   	nop
   140003b9f:	90                   	nop

0000000140003ba0 <_ZNKSt8__detail15_Hash_code_baseIlSt4pairIKllENS_10_Select1stESt4hashIlENS_18_Mod_range_hashingENS_20_Default_ranged_hashELb0EE12_M_hash_codeERS2_>:
   140003ba0:	55                   	push   rbp
   140003ba1:	48 89 e5             	mov    rbp,rsp
   140003ba4:	48 83 ec 20          	sub    rsp,0x20
   140003ba8:	48 89 4d 10          	mov    QWORD PTR [rbp+0x10],rcx
   140003bac:	48 89 55 18          	mov    QWORD PTR [rbp+0x18],rdx
   140003bb0:	48 8b 45 10          	mov    rax,QWORD PTR [rbp+0x10]
   140003bb4:	48 89 c1             	mov    rcx,rax
   140003bb7:	e8 f4 00 00 00       	call   140003cb0 <_ZNKSt8__detail15_Hash_code_baseIlSt4pairIKllENS_10_Select1stESt4hashIlENS_18_Mod_range_hashingENS_20_Default_ranged_hashELb0EE7_M_hashEv>
   140003bbc:	48 89 c1             	mov    rcx,rax
   140003bbf:	48 8b 45 18          	mov    rax,QWORD PTR [rbp+0x18]
   140003bc3:	8b 00                	mov    eax,DWORD PTR [rax]
   140003bc5:	89 c2                	mov    edx,eax
   140003bc7:	e8 a4 fe ff ff       	call   140003a70 <_ZNKSt4hashIlEclEl>
   140003bcc:	48 83 c4 20          	add    rsp,0x20
   140003bd0:	5d                   	pop    rbp
   140003bd1:	c3                   	ret
   140003bd2:	90                   	nop
   140003bd3:	90                   	nop
   140003bd4:	90                   	nop
   140003bd5:	90                   	nop
   140003bd6:	90                   	nop
   140003bd7:	90                   	nop
   140003bd8:	90                   	nop
   140003bd9:	90                   	nop
   140003bda:	90                   	nop
   140003bdb:	90                   	nop
   140003bdc:	90                   	nop
   140003bdd:	90                   	nop
   140003bde:	90                   	nop
   140003bdf:	90                   	nop

0000000140003be0 <_ZNKSt8__detail15_Hash_code_baseIlSt4pairIKllENS_10_Select1stESt4hashIlENS_18_Mod_range_hashingENS_20_Default_ranged_hashELb0EE13_M_store_codeERNS_21_Hash_node_code_cacheILb0EEEy>:
   140003be0:	55                   	push   rbp
   140003be1:	48 89 e5             	mov    rbp,rsp
   140003be4:	48 89 4d 10          	mov    QWORD PTR [rbp+0x10],rcx
   140003be8:	48 89 55 18          	mov    QWORD PTR [rbp+0x18],rdx
   140003bec:	4c 89 45 20          	mov    QWORD PTR [rbp+0x20],r8
   140003bf0:	90                   	nop
   140003bf1:	5d                   	pop    rbp
   140003bf2:	c3                   	ret
   140003bf3:	90                   	nop
   140003bf4:	90                   	nop
   140003bf5:	90                   	nop
   140003bf6:	90                   	nop
   140003bf7:	90                   	nop
   140003bf8:	90                   	nop
   140003bf9:	90                   	nop
   140003bfa:	90                   	nop
   140003bfb:	90                   	nop
   140003bfc:	90                   	nop
   140003bfd:	90                   	nop
   140003bfe:	90                   	nop
   140003bff:	90                   	nop

0000000140003c00 <_ZNKSt8__detail15_Hash_code_baseIlSt4pairIKllENS_10_Select1stESt4hashIlENS_18_Mod_range_hashingENS_20_Default_ranged_hashELb0EE15_M_bucket_indexERKNS_16_Hash_node_valueIS3_Lb0EEEy>:
   140003c00:	55                   	push   rbp
   140003c01:	48 89 e5             	mov    rbp,rsp
   140003c04:	48 83 ec 40          	sub    rsp,0x40
   140003c08:	48 89 4d 10          	mov    QWORD PTR [rbp+0x10],rcx
   140003c0c:	48 89 55 18          	mov    QWORD PTR [rbp+0x18],rdx
   140003c10:	4c 89 45 20          	mov    QWORD PTR [rbp+0x20],r8
   140003c14:	48 8b 45 18          	mov    rax,QWORD PTR [rbp+0x18]
   140003c18:	48 89 45 f8          	mov    QWORD PTR [rbp-0x8],rax
   140003c1c:	48 8b 45 f8          	mov    rax,QWORD PTR [rbp-0x8]
   140003c20:	48 89 45 f0          	mov    QWORD PTR [rbp-0x10],rax
   140003c24:	48 8b 45 f0          	mov    rax,QWORD PTR [rbp-0x10]
   140003c28:	48 89 c1             	mov    rcx,rax
   140003c2b:	e8 10 fb ff ff       	call   140003740 <_ZNK9__gnu_cxx16__aligned_bufferISt4pairIKllEE6_M_ptrEv>
   140003c30:	48 89 c2             	mov    rdx,rax
   140003c33:	90                   	nop
   140003c34:	90                   	nop
   140003c35:	48 8d 45 ef          	lea    rax,[rbp-0x11]
   140003c39:	48 89 c1             	mov    rcx,rax
   140003c3c:	e8 ff fe ff ff       	call   140003b40 <_ZNKSt8__detail10_Select1stclIRKSt4pairIKllEEEONS0_10__1st_typeIT_E4typeEOS8_>
   140003c41:	48 89 c2             	mov    rdx,rax
   140003c44:	48 8b 45 10          	mov    rax,QWORD PTR [rbp+0x10]
   140003c48:	48 89 c1             	mov    rcx,rax
   140003c4b:	e8 50 ff ff ff       	call   140003ba0 <_ZNKSt8__detail15_Hash_code_baseIlSt4pairIKllENS_10_Select1stESt4hashIlENS_18_Mod_range_hashingENS_20_Default_ranged_hashELb0EE12_M_hash_codeERS2_>
   140003c50:	48 89 c2             	mov    rdx,rax
   140003c53:	48 8b 4d 20          	mov    rcx,QWORD PTR [rbp+0x20]
   140003c57:	48 8d 45 ee          	lea    rax,[rbp-0x12]
   140003c5b:	49 89 c8             	mov    r8,rcx
   140003c5e:	48 89 c1             	mov    rcx,rax
   140003c61:	e8 5a 01 00 00       	call   140003dc0 <_ZNKSt8__detail18_Mod_range_hashingclEyy>
   140003c66:	48 83 c4 40          	add    rsp,0x40
   140003c6a:	5d                   	pop    rbp
   140003c6b:	c3                   	ret
   140003c6c:	90                   	nop
   140003c6d:	90                   	nop
   140003c6e:	90                   	nop
   140003c6f:	90                   	nop

0000000140003c70 <_ZNKSt8__detail15_Hash_code_baseIlSt4pairIKllENS_10_Select1stESt4hashIlENS_18_Mod_range_hashingENS_20_Default_ranged_hashELb0EE15_M_bucket_indexEyy>:
   140003c70:	55                   	push   rbp
   140003c71:	48 89 e5             	mov    rbp,rsp
   140003c74:	48 83 ec 30          	sub    rsp,0x30
   140003c78:	48 89 4d 10          	mov    QWORD PTR [rbp+0x10],rcx
   140003c7c:	48 89 55 18          	mov    QWORD PTR [rbp+0x18],rdx
   140003c80:	4c 89 45 20          	mov    QWORD PTR [rbp+0x20],r8
   140003c84:	48 8b 4d 20          	mov    rcx,QWORD PTR [rbp+0x20]
   140003c88:	48 8b 55 18          	mov    rdx,QWORD PTR [rbp+0x18]
   140003c8c:	48 8d 45 ff          	lea    rax,[rbp-0x1]
   140003c90:	49 89 c8             	mov    r8,rcx
   140003c93:	48 89 c1             	mov    rcx,rax
   140003c96:	e8 25 01 00 00       	call   140003dc0 <_ZNKSt8__detail18_Mod_range_hashingclEyy>
   140003c9b:	48 83 c4 30          	add    rsp,0x30
   140003c9f:	5d                   	pop    rbp
   140003ca0:	c3                   	ret
   140003ca1:	90                   	nop
   140003ca2:	90                   	nop
   140003ca3:	90                   	nop
   140003ca4:	90                   	nop
   140003ca5:	90                   	nop
   140003ca6:	90                   	nop
   140003ca7:	90                   	nop
   140003ca8:	90                   	nop
   140003ca9:	90                   	nop
   140003caa:	90                   	nop
   140003cab:	90                   	nop
   140003cac:	90                   	nop
   140003cad:	90                   	nop
   140003cae:	90                   	nop
   140003caf:	90                   	nop

0000000140003cb0 <_ZNKSt8__detail15_Hash_code_baseIlSt4pairIKllENS_10_Select1stESt4hashIlENS_18_Mod_range_hashingENS_20_Default_ranged_hashELb0EE7_M_hashEv>:
   140003cb0:	55                   	push   rbp
   140003cb1:	48 89 e5             	mov    rbp,rsp
   140003cb4:	48 83 ec 20          	sub    rsp,0x20
   140003cb8:	48 89 4d 10          	mov    QWORD PTR [rbp+0x10],rcx
   140003cbc:	48 8b 45 10          	mov    rax,QWORD PTR [rbp+0x10]
   140003cc0:	48 89 c1             	mov    rcx,rax
   140003cc3:	e8 58 01 00 00       	call   140003e20 <_ZNKSt8__detail21_Hashtable_ebo_helperILi1ESt4hashIlELb1EE7_M_cgetEv>
   140003cc8:	48 83 c4 20          	add    rsp,0x20
   140003ccc:	5d                   	pop    rbp
   140003ccd:	c3                   	ret
   140003cce:	90                   	nop
   140003ccf:	90                   	nop

0000000140003cd0 <_ZNKSt8__detail15_Hashtable_baseIlSt4pairIKllENS_10_Select1stESt8equal_toIlESt4hashIlENS_18_Mod_range_hashingENS_20_Default_ranged_hashENS_17_Hashtable_traitsILb0ELb0ELb1EEEE13_M_key_equalsERS2_RKNS_16_Hash_node_valueIS3_Lb0EEE>:
   140003cd0:	55                   	push   rbp
   140003cd1:	53                   	push   rbx
   140003cd2:	48 83 ec 48          	sub    rsp,0x48
   140003cd6:	48 8d 6c 24 40       	lea    rbp,[rsp+0x40]
   140003cdb:	48 89 4d 20          	mov    QWORD PTR [rbp+0x20],rcx
   140003cdf:	48 89 55 28          	mov    QWORD PTR [rbp+0x28],rdx
   140003ce3:	4c 89 45 30          	mov    QWORD PTR [rbp+0x30],r8
   140003ce7:	48 8b 45 20          	mov    rax,QWORD PTR [rbp+0x20]
   140003ceb:	48 89 c1             	mov    rcx,rax
   140003cee:	e8 4d 00 00 00       	call   140003d40 <_ZNKSt8__detail15_Hashtable_baseIlSt4pairIKllENS_10_Select1stESt8equal_toIlESt4hashIlENS_18_Mod_range_hashingENS_20_Default_ranged_hashENS_17_Hashtable_traitsILb0ELb0ELb1EEEE5_M_eqEv>
   140003cf3:	48 89 c3             	mov    rbx,rax
   140003cf6:	48 8b 45 30          	mov    rax,QWORD PTR [rbp+0x30]
   140003cfa:	48 89 45 f8          	mov    QWORD PTR [rbp-0x8],rax
   140003cfe:	48 8b 45 f8          	mov    rax,QWORD PTR [rbp-0x8]
   140003d02:	48 89 45 f0          	mov    QWORD PTR [rbp-0x10],rax
   140003d06:	48 8b 45 f0          	mov    rax,QWORD PTR [rbp-0x10]
   140003d0a:	48 89 c1             	mov    rcx,rax
   140003d0d:	e8 2e fa ff ff       	call   140003740 <_ZNK9__gnu_cxx16__aligned_bufferISt4pairIKllEE6_M_ptrEv>
   140003d12:	48 89 c2             	mov    rdx,rax
   140003d15:	90                   	nop
   140003d16:	90                   	nop
   140003d17:	48 8d 45 ef          	lea    rax,[rbp-0x11]
   140003d1b:	48 89 c1             	mov    rcx,rax
   140003d1e:	e8 1d fe ff ff       	call   140003b40 <_ZNKSt8__detail10_Select1stclIRKSt4pairIKllEEEONS0_10__1st_typeIT_E4typeEOS8_>
   140003d23:	48 89 c2             	mov    rdx,rax
   140003d26:	48 8b 45 28          	mov    rax,QWORD PTR [rbp+0x28]
   140003d2a:	49 89 d0             	mov    r8,rdx
   140003d2d:	48 89 c2             	mov    rdx,rax
   140003d30:	48 89 d9             	mov    rcx,rbx
   140003d33:	e8 f8 00 00 00       	call   140003e30 <_ZNKSt8equal_toIlEclERKlS2_>
   140003d38:	48 83 c4 48          	add    rsp,0x48
   140003d3c:	5b                   	pop    rbx
   140003d3d:	5d                   	pop    rbp
   140003d3e:	c3                   	ret
   140003d3f:	90                   	nop

0000000140003d40 <_ZNKSt8__detail15_Hashtable_baseIlSt4pairIKllENS_10_Select1stESt8equal_toIlESt4hashIlENS_18_Mod_range_hashingENS_20_Default_ranged_hashENS_17_Hashtable_traitsILb0ELb0ELb1EEEE5_M_eqEv>:
   140003d40:	55                   	push   rbp
   140003d41:	48 89 e5             	mov    rbp,rsp
   140003d44:	48 83 ec 20          	sub    rsp,0x20
   140003d48:	48 89 4d 10          	mov    QWORD PTR [rbp+0x10],rcx
   140003d4c:	48 8b 45 10          	mov    rax,QWORD PTR [rbp+0x10]
   140003d50:	48 89 c1             	mov    rcx,rax
   140003d53:	e8 b8 00 00 00       	call   140003e10 <_ZNKSt8__detail21_Hashtable_ebo_helperILi0ESt8equal_toIlELb1EE7_M_cgetEv>
   140003d58:	48 83 c4 20          	add    rsp,0x20
   140003d5c:	5d                   	pop    rbp
   140003d5d:	c3                   	ret
   140003d5e:	90                   	nop
   140003d5f:	90                   	nop

0000000140003d60 <_ZNKSt8__detail15_Hashtable_baseIlSt4pairIKllENS_10_Select1stESt8equal_toIlESt4hashIlENS_18_Mod_range_hashingENS_20_Default_ranged_hashENS_17_Hashtable_traitsILb0ELb0ELb1EEEE9_M_equalsERS2_yRKNS_16_Hash_node_valueIS3_Lb0EEE>:
   140003d60:	55                   	push   rbp
   140003d61:	48 89 e5             	mov    rbp,rsp
   140003d64:	48 83 ec 20          	sub    rsp,0x20
   140003d68:	48 89 4d 10          	mov    QWORD PTR [rbp+0x10],rcx
   140003d6c:	48 89 55 18          	mov    QWORD PTR [rbp+0x18],rdx
   140003d70:	4c 89 45 20          	mov    QWORD PTR [rbp+0x20],r8
   140003d74:	4c 89 4d 28          	mov    QWORD PTR [rbp+0x28],r9
   140003d78:	48 8b 55 28          	mov    rdx,QWORD PTR [rbp+0x28]
   140003d7c:	48 8b 45 20          	mov    rax,QWORD PTR [rbp+0x20]
   140003d80:	48 89 c1             	mov    rcx,rax
   140003d83:	e8 88 15 00 00       	call   140005310 <_ZNSt8__detail15_Hashtable_baseIlSt4pairIKllENS_10_Select1stESt8equal_toIlESt4hashIlENS_18_Mod_range_hashingENS_20_Default_ranged_hashENS_17_Hashtable_traitsILb0ELb0ELb1EEEE9_S_equalsEyRKNS_21_Hash_node_code_cacheILb0EEE>
   140003d88:	84 c0                	test   al,al
   140003d8a:	74 22                	je     140003dae <_ZNKSt8__detail15_Hashtable_baseIlSt4pairIKllENS_10_Select1stESt8equal_toIlESt4hashIlENS_18_Mod_range_hashingENS_20_Default_ranged_hashENS_17_Hashtable_traitsILb0ELb0ELb1EEEE9_M_equalsERS2_yRKNS_16_Hash_node_valueIS3_Lb0EEE+0x4e>
   140003d8c:	48 8b 4d 28          	mov    rcx,QWORD PTR [rbp+0x28]
   140003d90:	48 8b 55 18          	mov    rdx,QWORD PTR [rbp+0x18]
   140003d94:	48 8b 45 10          	mov    rax,QWORD PTR [rbp+0x10]
   140003d98:	49 89 c8             	mov    r8,rcx
   140003d9b:	48 89 c1             	mov    rcx,rax
   140003d9e:	e8 2d ff ff ff       	call   140003cd0 <_ZNKSt8__detail15_Hashtable_baseIlSt4pairIKllENS_10_Select1stESt8equal_toIlESt4hashIlENS_18_Mod_range_hashingENS_20_Default_ranged_hashENS_17_Hashtable_traitsILb0ELb0ELb1EEEE13_M_key_equalsERS2_RKNS_16_Hash_node_valueIS3_Lb0EEE>
   140003da3:	84 c0                	test   al,al
   140003da5:	74 07                	je     140003dae <_ZNKSt8__detail15_Hashtable_baseIlSt4pairIKllENS_10_Select1stESt8equal_toIlESt4hashIlENS_18_Mod_range_hashingENS_20_Default_ranged_hashENS_17_Hashtable_traitsILb0ELb0ELb1EEEE9_M_equalsERS2_yRKNS_16_Hash_node_valueIS3_Lb0EEE+0x4e>
   140003da7:	b8 01 00 00 00       	mov    eax,0x1
   140003dac:	eb 05                	jmp    140003db3 <_ZNKSt8__detail15_Hashtable_baseIlSt4pairIKllENS_10_Select1stESt8equal_toIlESt4hashIlENS_18_Mod_range_hashingENS_20_Default_ranged_hashENS_17_Hashtable_traitsILb0ELb0ELb1EEEE9_M_equalsERS2_yRKNS_16_Hash_node_valueIS3_Lb0EEE+0x53>
   140003dae:	b8 00 00 00 00       	mov    eax,0x0
   140003db3:	48 83 c4 20          	add    rsp,0x20
   140003db7:	5d                   	pop    rbp
   140003db8:	c3                   	ret
   140003db9:	90                   	nop
   140003dba:	90                   	nop
   140003dbb:	90                   	nop
   140003dbc:	90                   	nop
   140003dbd:	90                   	nop
   140003dbe:	90                   	nop
   140003dbf:	90                   	nop

0000000140003dc0 <_ZNKSt8__detail18_Mod_range_hashingclEyy>:
   140003dc0:	55                   	push   rbp
   140003dc1:	48 89 e5             	mov    rbp,rsp
   140003dc4:	48 89 4d 10          	mov    QWORD PTR [rbp+0x10],rcx
   140003dc8:	48 89 55 18          	mov    QWORD PTR [rbp+0x18],rdx
   140003dcc:	4c 89 45 20          	mov    QWORD PTR [rbp+0x20],r8
   140003dd0:	48 8b 45 18          	mov    rax,QWORD PTR [rbp+0x18]
   140003dd4:	ba 00 00 00 00       	mov    edx,0x0
   140003dd9:	48 f7 75 20          	div    QWORD PTR [rbp+0x20]
   140003ddd:	48 89 d0             	mov    rax,rdx
   140003de0:	5d                   	pop    rbp
   140003de1:	c3                   	ret
   140003de2:	90                   	nop
   140003de3:	90                   	nop
   140003de4:	90                   	nop
   140003de5:	90                   	nop
   140003de6:	90                   	nop
   140003de7:	90                   	nop
   140003de8:	90                   	nop
   140003de9:	90                   	nop
   140003dea:	90                   	nop
   140003deb:	90                   	nop
   140003dec:	90                   	nop
   140003ded:	90                   	nop
   140003dee:	90                   	nop
   140003def:	90                   	nop

0000000140003df0 <_ZNKSt8__detail20_Prime_rehash_policy8_M_stateEv>:
   140003df0:	55                   	push   rbp
   140003df1:	48 89 e5             	mov    rbp,rsp
   140003df4:	48 89 4d 10          	mov    QWORD PTR [rbp+0x10],rcx
   140003df8:	48 8b 45 10          	mov    rax,QWORD PTR [rbp+0x10]
   140003dfc:	48 8b 40 08          	mov    rax,QWORD PTR [rax+0x8]
   140003e00:	5d                   	pop    rbp
   140003e01:	c3                   	ret
   140003e02:	90                   	nop
   140003e03:	90                   	nop
   140003e04:	90                   	nop
   140003e05:	90                   	nop
   140003e06:	90                   	nop
   140003e07:	90                   	nop
   140003e08:	90                   	nop
   140003e09:	90                   	nop
   140003e0a:	90                   	nop
   140003e0b:	90                   	nop
   140003e0c:	90                   	nop
   140003e0d:	90                   	nop
   140003e0e:	90                   	nop
   140003e0f:	90                   	nop

0000000140003e10 <_ZNKSt8__detail21_Hashtable_ebo_helperILi0ESt8equal_toIlELb1EE7_M_cgetEv>:
   140003e10:	55                   	push   rbp
   140003e11:	48 89 e5             	mov    rbp,rsp
   140003e14:	48 89 4d 10          	mov    QWORD PTR [rbp+0x10],rcx
   140003e18:	48 8b 45 10          	mov    rax,QWORD PTR [rbp+0x10]
   140003e1c:	5d                   	pop    rbp
   140003e1d:	c3                   	ret
   140003e1e:	90                   	nop
   140003e1f:	90                   	nop

0000000140003e20 <_ZNKSt8__detail21_Hashtable_ebo_helperILi1ESt4hashIlELb1EE7_M_cgetEv>:
   140003e20:	55                   	push   rbp
   140003e21:	48 89 e5             	mov    rbp,rsp
   140003e24:	48 89 4d 10          	mov    QWORD PTR [rbp+0x10],rcx
   140003e28:	48 8b 45 10          	mov    rax,QWORD PTR [rbp+0x10]
   140003e2c:	5d                   	pop    rbp
   140003e2d:	c3                   	ret
   140003e2e:	90                   	nop
   140003e2f:	90                   	nop

0000000140003e30 <_ZNKSt8equal_toIlEclERKlS2_>:
   140003e30:	55                   	push   rbp
   140003e31:	48 89 e5             	mov    rbp,rsp
   140003e34:	48 89 4d 10          	mov    QWORD PTR [rbp+0x10],rcx
   140003e38:	48 89 55 18          	mov    QWORD PTR [rbp+0x18],rdx
   140003e3c:	4c 89 45 20          	mov    QWORD PTR [rbp+0x20],r8
   140003e40:	48 8b 45 18          	mov    rax,QWORD PTR [rbp+0x18]
   140003e44:	8b 10                	mov    edx,DWORD PTR [rax]
   140003e46:	48 8b 45 20          	mov    rax,QWORD PTR [rbp+0x20]
   140003e4a:	8b 00                	mov    eax,DWORD PTR [rax]
   140003e4c:	39 c2                	cmp    edx,eax
   140003e4e:	0f 94 c0             	sete   al
   140003e51:	5d                   	pop    rbp
   140003e52:	c3                   	ret
   140003e53:	90                   	nop
   140003e54:	90                   	nop
   140003e55:	90                   	nop
   140003e56:	90                   	nop
   140003e57:	90                   	nop
   140003e58:	90                   	nop
   140003e59:	90                   	nop
   140003e5a:	90                   	nop
   140003e5b:	90                   	nop
   140003e5c:	90                   	nop
   140003e5d:	90                   	nop
   140003e5e:	90                   	nop
   140003e5f:	90                   	nop

0000000140003e60 <_ZNSt10_HashtableIlSt4pairIKllESaIS2_ENSt8__detail10_Select1stESt8equal_toIlESt4hashIlENS4_18_Mod_range_hashingENS4_20_Default_ranged_hashENS4_20_Prime_rehash_policyENS4_17_Hashtable_traitsILb0ELb0ELb1EEEE12_Scoped_nodeC1IJRKSt21piecewise_construct_tSt5tupleIJOlEESL_IJEEEEEPNS4_16_Hashtable_allocISaINS4_10_Hash_nodeIS2_Lb0EEEEEEDpOT_>:
   140003e60:	55                   	push   rbp
   140003e61:	57                   	push   rdi
   140003e62:	56                   	push   rsi
   140003e63:	53                   	push   rbx
   140003e64:	48 83 ec 28          	sub    rsp,0x28
   140003e68:	48 8d 6c 24 20       	lea    rbp,[rsp+0x20]
   140003e6d:	48 89 4d 30          	mov    QWORD PTR [rbp+0x30],rcx
   140003e71:	48 89 55 38          	mov    QWORD PTR [rbp+0x38],rdx
   140003e75:	4c 89 45 40          	mov    QWORD PTR [rbp+0x40],r8
   140003e79:	4c 89 4d 48          	mov    QWORD PTR [rbp+0x48],r9
   140003e7d:	48 8b 45 30          	mov    rax,QWORD PTR [rbp+0x30]
   140003e81:	48 8b 55 38          	mov    rdx,QWORD PTR [rbp+0x38]
   140003e85:	48 89 10             	mov    QWORD PTR [rax],rdx
   140003e88:	48 8b 5d 38          	mov    rbx,QWORD PTR [rbp+0x38]
   140003e8c:	48 8b 45 50          	mov    rax,QWORD PTR [rbp+0x50]
   140003e90:	48 89 c1             	mov    rcx,rax
   140003e93:	e8 e8 24 00 00       	call   140006380 <_ZSt7forwardISt5tupleIJEEEOT_RNSt16remove_referenceIS2_E4typeE>
   140003e98:	48 89 c7             	mov    rdi,rax
   140003e9b:	48 8b 45 48          	mov    rax,QWORD PTR [rbp+0x48]
   140003e9f:	48 89 c1             	mov    rcx,rax
   140003ea2:	e8 e9 24 00 00       	call   140006390 <_ZSt7forwardISt5tupleIJOlEEEOT_RNSt16remove_referenceIS3_E4typeE>
   140003ea7:	48 89 c6             	mov    rsi,rax
   140003eaa:	48 8b 45 40          	mov    rax,QWORD PTR [rbp+0x40]
   140003eae:	48 89 c1             	mov    rcx,rax
   140003eb1:	e8 9a 24 00 00       	call   140006350 <_ZSt7forwardIRKSt21piecewise_construct_tEOT_RNSt16remove_referenceIS3_E4typeE>
   140003eb6:	49 89 f9             	mov    r9,rdi
   140003eb9:	49 89 f0             	mov    r8,rsi
   140003ebc:	48 89 c2             	mov    rdx,rax
   140003ebf:	48 89 d9             	mov    rcx,rbx
   140003ec2:	e8 99 14 00 00       	call   140005360 <_ZNSt8__detail16_Hashtable_allocISaINS_10_Hash_nodeISt4pairIKllELb0EEEEE16_M_allocate_nodeIJRKSt21piecewise_construct_tSt5tupleIJOlEESC_IJEEEEEPS5_DpOT_>
   140003ec7:	48 8b 55 30          	mov    rdx,QWORD PTR [rbp+0x30]
   140003ecb:	48 89 42 08          	mov    QWORD PTR [rdx+0x8],rax
   140003ecf:	90                   	nop
   140003ed0:	48 83 c4 28          	add    rsp,0x28
   140003ed4:	5b                   	pop    rbx
   140003ed5:	5e                   	pop    rsi
   140003ed6:	5f                   	pop    rdi
   140003ed7:	5d                   	pop    rbp
   140003ed8:	c3                   	ret
   140003ed9:	90                   	nop
   140003eda:	90                   	nop
   140003edb:	90                   	nop
   140003edc:	90                   	nop
   140003edd:	90                   	nop
   140003ede:	90                   	nop
   140003edf:	90                   	nop

0000000140003ee0 <_ZNSt10_HashtableIlSt4pairIKllESaIS2_ENSt8__detail10_Select1stESt8equal_toIlESt4hashIlENS4_18_Mod_range_hashingENS4_20_Default_ranged_hashENS4_20_Prime_rehash_policyENS4_17_Hashtable_traitsILb0ELb0ELb1EEEE12_Scoped_nodeD1Ev>:
   140003ee0:	55                   	push   rbp
   140003ee1:	48 89 e5             	mov    rbp,rsp
   140003ee4:	48 83 ec 20          	sub    rsp,0x20
   140003ee8:	48 89 4d 10          	mov    QWORD PTR [rbp+0x10],rcx
   140003eec:	48 8b 45 10          	mov    rax,QWORD PTR [rbp+0x10]
   140003ef0:	48 8b 40 08          	mov    rax,QWORD PTR [rax+0x8]
   140003ef4:	48 85 c0             	test   rax,rax
   140003ef7:	74 17                	je     140003f10 <_ZNSt10_HashtableIlSt4pairIKllESaIS2_ENSt8__detail10_Select1stESt8equal_toIlESt4hashIlENS4_18_Mod_range_hashingENS4_20_Default_ranged_hashENS4_20_Prime_rehash_policyENS4_17_Hashtable_traitsILb0ELb0ELb1EEEE12_Scoped_nodeD1Ev+0x30>
   140003ef9:	48 8b 45 10          	mov    rax,QWORD PTR [rbp+0x10]
   140003efd:	48 8b 00             	mov    rax,QWORD PTR [rax]
   140003f00:	48 8b 55 10          	mov    rdx,QWORD PTR [rbp+0x10]
   140003f04:	48 8b 52 08          	mov    rdx,QWORD PTR [rdx+0x8]
   140003f08:	48 89 c1             	mov    rcx,rax
   140003f0b:	e8 b0 16 00 00       	call   1400055c0 <_ZNSt8__detail16_Hashtable_allocISaINS_10_Hash_nodeISt4pairIKllELb0EEEEE18_M_deallocate_nodeEPS5_>
   140003f10:	90                   	nop
   140003f11:	48 83 c4 20          	add    rsp,0x20
   140003f15:	5d                   	pop    rbp
   140003f16:	c3                   	ret
   140003f17:	90                   	nop
   140003f18:	90                   	nop
   140003f19:	90                   	nop
   140003f1a:	90                   	nop
   140003f1b:	90                   	nop
   140003f1c:	90                   	nop
   140003f1d:	90                   	nop
   140003f1e:	90                   	nop
   140003f1f:	90                   	nop

0000000140003f20 <_ZNSt10_HashtableIlSt4pairIKllESaIS2_ENSt8__detail10_Select1stESt8equal_toIlESt4hashIlENS4_18_Mod_range_hashingENS4_20_Default_ranged_hashENS4_20_Prime_rehash_policyENS4_17_Hashtable_traitsILb0ELb0ELb1EEEE19_M_allocate_bucketsEy>:
   140003f20:	55                   	push   rbp
   140003f21:	48 89 e5             	mov    rbp,rsp
   140003f24:	48 83 ec 20          	sub    rsp,0x20
   140003f28:	48 89 4d 10          	mov    QWORD PTR [rbp+0x10],rcx
   140003f2c:	48 89 55 18          	mov    QWORD PTR [rbp+0x18],rdx
   140003f30:	48 83 7d 18 01       	cmp    QWORD PTR [rbp+0x18],0x1
   140003f35:	0f 94 c0             	sete   al
   140003f38:	0f b6 c0             	movzx  eax,al
   140003f3b:	85 c0                	test   eax,eax
   140003f3d:	74 16                	je     140003f55 <_ZNSt10_HashtableIlSt4pairIKllESaIS2_ENSt8__detail10_Select1stESt8equal_toIlESt4hashIlENS4_18_Mod_range_hashingENS4_20_Default_ranged_hashENS4_20_Prime_rehash_policyENS4_17_Hashtable_traitsILb0ELb0ELb1EEEE19_M_allocate_bucketsEy+0x35>
   140003f3f:	48 8b 45 10          	mov    rax,QWORD PTR [rbp+0x10]
   140003f43:	48 c7 40 30 00 00 00 	mov    QWORD PTR [rax+0x30],0x0
   140003f4a:	00 
   140003f4b:	48 8b 45 10          	mov    rax,QWORD PTR [rbp+0x10]
   140003f4f:	48 83 c0 30          	add    rax,0x30
   140003f53:	eb 11                	jmp    140003f66 <_ZNSt10_HashtableIlSt4pairIKllESaIS2_ENSt8__detail10_Select1stESt8equal_toIlESt4hashIlENS4_18_Mod_range_hashingENS4_20_Default_ranged_hashENS4_20_Prime_rehash_policyENS4_17_Hashtable_traitsILb0ELb0ELb1EEEE19_M_allocate_bucketsEy+0x46>
   140003f55:	48 8b 55 18          	mov    rdx,QWORD PTR [rbp+0x18]
   140003f59:	48 8b 45 10          	mov    rax,QWORD PTR [rbp+0x10]
   140003f5d:	48 89 c1             	mov    rcx,rax
   140003f60:	e8 cb 16 00 00       	call   140005630 <_ZNSt8__detail16_Hashtable_allocISaINS_10_Hash_nodeISt4pairIKllELb0EEEEE19_M_allocate_bucketsEy>
   140003f65:	90                   	nop
   140003f66:	48 83 c4 20          	add    rsp,0x20
   140003f6a:	5d                   	pop    rbp
   140003f6b:	c3                   	ret
   140003f6c:	90                   	nop
   140003f6d:	90                   	nop
   140003f6e:	90                   	nop
   140003f6f:	90                   	nop

0000000140003f70 <_ZNSt10_HashtableIlSt4pairIKllESaIS2_ENSt8__detail10_Select1stESt8equal_toIlESt4hashIlENS4_18_Mod_range_hashingENS4_20_Default_ranged_hashENS4_20_Prime_rehash_policyENS4_17_Hashtable_traitsILb0ELb0ELb1EEEE21_M_deallocate_bucketsEPPNS4_15_Hash_node_baseEy>:
   140003f70:	55                   	push   rbp
   140003f71:	48 89 e5             	mov    rbp,rsp
   140003f74:	48 83 ec 20          	sub    rsp,0x20
   140003f78:	48 89 4d 10          	mov    QWORD PTR [rbp+0x10],rcx
   140003f7c:	48 89 55 18          	mov    QWORD PTR [rbp+0x18],rdx
   140003f80:	4c 89 45 20          	mov    QWORD PTR [rbp+0x20],r8
   140003f84:	48 8b 55 18          	mov    rdx,QWORD PTR [rbp+0x18]
   140003f88:	48 8b 45 10          	mov    rax,QWORD PTR [rbp+0x10]
   140003f8c:	48 89 c1             	mov    rcx,rax
   140003f8f:	e8 fc f9 ff ff       	call   140003990 <_ZNKSt10_HashtableIlSt4pairIKllESaIS2_ENSt8__detail10_Select1stESt8equal_toIlESt4hashIlENS4_18_Mod_range_hashingENS4_20_Default_ranged_hashENS4_20_Prime_rehash_policyENS4_17_Hashtable_traitsILb0ELb0ELb1EEEE21_M_uses_single_bucketEPPNS4_15_Hash_node_baseE>
   140003f94:	84 c0                	test   al,al
   140003f96:	75 19                	jne    140003fb1 <_ZNSt10_HashtableIlSt4pairIKllESaIS2_ENSt8__detail10_Select1stESt8equal_toIlESt4hashIlENS4_18_Mod_range_hashingENS4_20_Default_ranged_hashENS4_20_Prime_rehash_policyENS4_17_Hashtable_traitsILb0ELb0ELb1EEEE21_M_deallocate_bucketsEPPNS4_15_Hash_node_baseEy+0x41>
   140003f98:	48 8b 4d 20          	mov    rcx,QWORD PTR [rbp+0x20]
   140003f9c:	48 8b 55 18          	mov    rdx,QWORD PTR [rbp+0x18]
   140003fa0:	48 8b 45 10          	mov    rax,QWORD PTR [rbp+0x10]
   140003fa4:	49 89 c8             	mov    r8,rcx
   140003fa7:	48 89 c1             	mov    rcx,rax
   140003faa:	e8 c1 17 00 00       	call   140005770 <_ZNSt8__detail16_Hashtable_allocISaINS_10_Hash_nodeISt4pairIKllELb0EEEEE21_M_deallocate_bucketsEPPNS_15_Hash_node_baseEy>
   140003faf:	eb 01                	jmp    140003fb2 <_ZNSt10_HashtableIlSt4pairIKllESaIS2_ENSt8__detail10_Select1stESt8equal_toIlESt4hashIlENS4_18_Mod_range_hashingENS4_20_Default_ranged_hashENS4_20_Prime_rehash_policyENS4_17_Hashtable_traitsILb0ELb0ELb1EEEE21_M_deallocate_bucketsEPPNS4_15_Hash_node_baseEy+0x42>
   140003fb1:	90                   	nop
   140003fb2:	48 83 c4 20          	add    rsp,0x20
   140003fb6:	5d                   	pop    rbp
